ARM GAS  C:\Users\andre\AppData\Local\Temp\ccj6BxVG.s 			page 1


   1              		.syntax unified
   2              		.cpu cortex-m3
   3              		.fpu softvfp
   4              		.eabi_attribute 20, 1
   5              		.eabi_attribute 21, 1
   6              		.eabi_attribute 23, 3
   7              		.eabi_attribute 24, 1
   8              		.eabi_attribute 25, 1
   9              		.eabi_attribute 26, 1
  10              		.eabi_attribute 30, 1
  11              		.eabi_attribute 34, 1
  12              		.eabi_attribute 18, 4
  13              		.thumb
  14              		.syntax unified
  15              		.file	"sensor.c"
  16              		.text
  17              	.Ltext0:
  18              		.cfi_sections	.debug_frame
  19              		.section	.text.sensor_isr_handler,"ax",%progbits
  20              		.align	2
  21              		.global	sensor_isr_handler
  22              		.thumb
  23              		.thumb_func
  24              		.type	sensor_isr_handler, %function
  25              	sensor_isr_handler:
  26              	.LFB69:
  27              		.file 1 "sensor.c"
   1:sensor.c      **** #include "project.h"
   2:sensor.c      **** 
   3:sensor.c      **** CY_ISR_PROTO(sensor_isr_handler);
   4:sensor.c      **** long count = 0;
   5:sensor.c      **** int newCountFlag = 0;
   6:sensor.c      **** 
   7:sensor.c      **** #define countFreq 12.f //MHz count input
   8:sensor.c      **** 
   9:sensor.c      **** 
  10:sensor.c      **** void initSensor()
  11:sensor.c      **** {
  12:sensor.c      ****     sensor_input_isr_StartEx(sensor_isr_handler);
  13:sensor.c      **** }
  14:sensor.c      **** 
  15:sensor.c      **** void startBurst()
  16:sensor.c      **** {
  17:sensor.c      ****     PWM_1_Start();
  18:sensor.c      **** }
  19:sensor.c      **** 
  20:sensor.c      **** void stopBurst()
  21:sensor.c      **** {
  22:sensor.c      ****     PWM_1_Stop();
  23:sensor.c      **** }
  24:sensor.c      **** 
  25:sensor.c      **** void startCounter()
  26:sensor.c      **** {
  27:sensor.c      ****     Counter_Sensor_WriteCounter(0);
  28:sensor.c      ****     Counter_Sensor_Start();
  29:sensor.c      **** }
  30:sensor.c      **** float calcTime(long count)
ARM GAS  C:\Users\andre\AppData\Local\Temp\ccj6BxVG.s 			page 2


  31:sensor.c      **** {
  32:sensor.c      ****     return count / countFreq;
  33:sensor.c      **** }
  34:sensor.c      **** 
  35:sensor.c      **** float calcAngle(long count)
  36:sensor.c      **** {
  37:sensor.c      ****     return ((count * 0.00581473) - 69.19523235);
  38:sensor.c      **** }
  39:sensor.c      **** 
  40:sensor.c      **** CY_ISR(sensor_isr_handler)
  41:sensor.c      **** {
  28              		.loc 1 41 0
  29              		.cfi_startproc
  30              		@ args = 0, pretend = 0, frame = 0
  31              		@ frame_needed = 0, uses_anonymous_args = 0
  32 0000 08B5     		push	{r3, lr}
  33              		.cfi_def_cfa_offset 8
  34              		.cfi_offset 3, -8
  35              		.cfi_offset 14, -4
  42:sensor.c      ****     count = Counter_Sensor_ReadCounter();
  36              		.loc 1 42 0
  37 0002 FFF7FEFF 		bl	Counter_Sensor_ReadCounter
  38              	.LVL0:
  39 0006 024B     		ldr	r3, .L3
  40 0008 1860     		str	r0, [r3]
  43:sensor.c      ****     //stopBurst();
  44:sensor.c      ****     Counter_Sensor_Stop();
  41              		.loc 1 44 0
  42 000a FFF7FEFF 		bl	Counter_Sensor_Stop
  43              	.LVL1:
  44 000e 08BD     		pop	{r3, pc}
  45              	.L4:
  46              		.align	2
  47              	.L3:
  48 0010 00000000 		.word	.LANCHOR0
  49              		.cfi_endproc
  50              	.LFE69:
  51              		.size	sensor_isr_handler, .-sensor_isr_handler
  52              		.section	.text.initSensor,"ax",%progbits
  53              		.align	2
  54              		.global	initSensor
  55              		.thumb
  56              		.thumb_func
  57              		.type	initSensor, %function
  58              	initSensor:
  59              	.LFB63:
  11:sensor.c      ****     sensor_input_isr_StartEx(sensor_isr_handler);
  60              		.loc 1 11 0
  61              		.cfi_startproc
  62              		@ args = 0, pretend = 0, frame = 0
  63              		@ frame_needed = 0, uses_anonymous_args = 0
  64 0000 08B5     		push	{r3, lr}
  65              		.cfi_def_cfa_offset 8
  66              		.cfi_offset 3, -8
  67              		.cfi_offset 14, -4
  12:sensor.c      **** }
  68              		.loc 1 12 0
ARM GAS  C:\Users\andre\AppData\Local\Temp\ccj6BxVG.s 			page 3


  69 0002 0248     		ldr	r0, .L7
  70 0004 FFF7FEFF 		bl	sensor_input_isr_StartEx
  71              	.LVL2:
  72 0008 08BD     		pop	{r3, pc}
  73              	.L8:
  74 000a 00BF     		.align	2
  75              	.L7:
  76 000c 00000000 		.word	sensor_isr_handler
  77              		.cfi_endproc
  78              	.LFE63:
  79              		.size	initSensor, .-initSensor
  80              		.section	.text.startBurst,"ax",%progbits
  81              		.align	2
  82              		.global	startBurst
  83              		.thumb
  84              		.thumb_func
  85              		.type	startBurst, %function
  86              	startBurst:
  87              	.LFB64:
  16:sensor.c      ****     PWM_1_Start();
  88              		.loc 1 16 0
  89              		.cfi_startproc
  90              		@ args = 0, pretend = 0, frame = 0
  91              		@ frame_needed = 0, uses_anonymous_args = 0
  92 0000 08B5     		push	{r3, lr}
  93              		.cfi_def_cfa_offset 8
  94              		.cfi_offset 3, -8
  95              		.cfi_offset 14, -4
  17:sensor.c      **** }
  96              		.loc 1 17 0
  97 0002 FFF7FEFF 		bl	PWM_1_Start
  98              	.LVL3:
  99 0006 08BD     		pop	{r3, pc}
 100              		.cfi_endproc
 101              	.LFE64:
 102              		.size	startBurst, .-startBurst
 103              		.section	.text.stopBurst,"ax",%progbits
 104              		.align	2
 105              		.global	stopBurst
 106              		.thumb
 107              		.thumb_func
 108              		.type	stopBurst, %function
 109              	stopBurst:
 110              	.LFB65:
  21:sensor.c      ****     PWM_1_Stop();
 111              		.loc 1 21 0
 112              		.cfi_startproc
 113              		@ args = 0, pretend = 0, frame = 0
 114              		@ frame_needed = 0, uses_anonymous_args = 0
 115 0000 08B5     		push	{r3, lr}
 116              		.cfi_def_cfa_offset 8
 117              		.cfi_offset 3, -8
 118              		.cfi_offset 14, -4
  22:sensor.c      **** }
 119              		.loc 1 22 0
 120 0002 FFF7FEFF 		bl	PWM_1_Stop
 121              	.LVL4:
ARM GAS  C:\Users\andre\AppData\Local\Temp\ccj6BxVG.s 			page 4


 122 0006 08BD     		pop	{r3, pc}
 123              		.cfi_endproc
 124              	.LFE65:
 125              		.size	stopBurst, .-stopBurst
 126              		.section	.text.startCounter,"ax",%progbits
 127              		.align	2
 128              		.global	startCounter
 129              		.thumb
 130              		.thumb_func
 131              		.type	startCounter, %function
 132              	startCounter:
 133              	.LFB66:
  26:sensor.c      ****     Counter_Sensor_WriteCounter(0);
 134              		.loc 1 26 0
 135              		.cfi_startproc
 136              		@ args = 0, pretend = 0, frame = 0
 137              		@ frame_needed = 0, uses_anonymous_args = 0
 138 0000 08B5     		push	{r3, lr}
 139              		.cfi_def_cfa_offset 8
 140              		.cfi_offset 3, -8
 141              		.cfi_offset 14, -4
  27:sensor.c      ****     Counter_Sensor_Start();
 142              		.loc 1 27 0
 143 0002 0020     		movs	r0, #0
 144 0004 FFF7FEFF 		bl	Counter_Sensor_WriteCounter
 145              	.LVL5:
  28:sensor.c      **** }
 146              		.loc 1 28 0
 147 0008 FFF7FEFF 		bl	Counter_Sensor_Start
 148              	.LVL6:
 149 000c 08BD     		pop	{r3, pc}
 150              		.cfi_endproc
 151              	.LFE66:
 152              		.size	startCounter, .-startCounter
 153              		.global	__aeabi_i2f
 154              		.global	__aeabi_fdiv
 155 000e 00BF     		.section	.text.calcTime,"ax",%progbits
 156              		.align	2
 157              		.global	calcTime
 158              		.thumb
 159              		.thumb_func
 160              		.type	calcTime, %function
 161              	calcTime:
 162              	.LFB67:
  31:sensor.c      ****     return count / countFreq;
 163              		.loc 1 31 0
 164              		.cfi_startproc
 165              		@ args = 0, pretend = 0, frame = 0
 166              		@ frame_needed = 0, uses_anonymous_args = 0
 167              	.LVL7:
 168 0000 08B5     		push	{r3, lr}
 169              		.cfi_def_cfa_offset 8
 170              		.cfi_offset 3, -8
 171              		.cfi_offset 14, -4
  32:sensor.c      **** }
 172              		.loc 1 32 0
 173 0002 FFF7FEFF 		bl	__aeabi_i2f
ARM GAS  C:\Users\andre\AppData\Local\Temp\ccj6BxVG.s 			page 5


 174              	.LVL8:
 175 0006 0249     		ldr	r1, .L17
 176 0008 FFF7FEFF 		bl	__aeabi_fdiv
 177              	.LVL9:
  33:sensor.c      **** 
 178              		.loc 1 33 0
 179 000c 08BD     		pop	{r3, pc}
 180              	.L18:
 181 000e 00BF     		.align	2
 182              	.L17:
 183 0010 00004041 		.word	1094713344
 184              		.cfi_endproc
 185              	.LFE67:
 186              		.size	calcTime, .-calcTime
 187              		.global	__aeabi_i2d
 188              		.global	__aeabi_dmul
 189              		.global	__aeabi_dsub
 190              		.global	__aeabi_d2f
 191              		.section	.text.calcAngle,"ax",%progbits
 192              		.align	2
 193              		.global	calcAngle
 194              		.thumb
 195              		.thumb_func
 196              		.type	calcAngle, %function
 197              	calcAngle:
 198              	.LFB68:
  36:sensor.c      ****     return ((count * 0.00581473) - 69.19523235);
 199              		.loc 1 36 0
 200              		.cfi_startproc
 201              		@ args = 0, pretend = 0, frame = 0
 202              		@ frame_needed = 0, uses_anonymous_args = 0
 203              	.LVL10:
 204 0000 08B5     		push	{r3, lr}
 205              		.cfi_def_cfa_offset 8
 206              		.cfi_offset 3, -8
 207              		.cfi_offset 14, -4
  37:sensor.c      **** }
 208              		.loc 1 37 0
 209 0002 FFF7FEFF 		bl	__aeabi_i2d
 210              	.LVL11:
 211 0006 06A3     		adr	r3, .L21
 212 0008 D3E90023 		ldrd	r2, [r3]
 213 000c FFF7FEFF 		bl	__aeabi_dmul
 214              	.LVL12:
 215 0010 05A3     		adr	r3, .L21+8
 216 0012 D3E90023 		ldrd	r2, [r3]
 217 0016 FFF7FEFF 		bl	__aeabi_dsub
 218              	.LVL13:
 219 001a FFF7FEFF 		bl	__aeabi_d2f
 220              	.LVL14:
  38:sensor.c      **** 
 221              		.loc 1 38 0
 222 001e 08BD     		pop	{r3, pc}
 223              	.L22:
 224              		.align	3
 225              	.L21:
 226 0020 0B0CF6B2 		.word	-1292497909
ARM GAS  C:\Users\andre\AppData\Local\Temp\ccj6BxVG.s 			page 6


 227 0024 2FD1773F 		.word	1064816943
 228 0028 C297D3AF 		.word	-1345087550
 229 002c 7E4C5140 		.word	1079069822
 230              		.cfi_endproc
 231              	.LFE68:
 232              		.size	calcAngle, .-calcAngle
 233              		.global	newCountFlag
 234              		.global	count
 235              		.bss
 236              		.align	2
 237              		.set	.LANCHOR0,. + 0
 238              		.type	count, %object
 239              		.size	count, 4
 240              	count:
 241 0000 00000000 		.space	4
 242              		.type	newCountFlag, %object
 243              		.size	newCountFlag, 4
 244              	newCountFlag:
 245 0004 00000000 		.space	4
 246              		.text
 247              	.Letext0:
 248              		.file 2 "c:\\program files (x86)\\cypress\\psoc creator\\4.4\\psoc creator\\import\\gnu\\arm\\5.4.
 249              		.file 3 "c:\\program files (x86)\\cypress\\psoc creator\\4.4\\psoc creator\\import\\gnu\\arm\\5.4.
 250              		.file 4 "Generated_Source\\PSoC5/core_cm3.h"
 251              		.file 5 "Generated_Source\\PSoC5/Counter_Sensor.h"
 252              		.file 6 "Generated_Source\\PSoC5/sensor_input_isr.h"
 253              		.file 7 "Generated_Source\\PSoC5/PWM_1.h"