ARM GAS  C:\Users\Jacob\AppData\Local\Temp\cc1Gw3Sn.s 			page 1


   1              		.syntax unified
   2              		.cpu cortex-m3
   3              		.fpu softvfp
   4              		.eabi_attribute 20, 1
   5              		.eabi_attribute 21, 1
   6              		.eabi_attribute 23, 3
   7              		.eabi_attribute 24, 1
   8              		.eabi_attribute 25, 1
   9              		.eabi_attribute 26, 1
  10              		.eabi_attribute 30, 1
  11              		.eabi_attribute 34, 1
  12              		.eabi_attribute 18, 4
  13              		.thumb
  14              		.syntax unified
  15              		.file	"main.c"
  16              		.text
  17              	.Ltext0:
  18              		.cfi_sections	.debug_frame
  19              		.section	.text.main,"ax",%progbits
  20              		.align	2
  21              		.global	main
  22              		.thumb
  23              		.thumb_func
  24              		.type	main, %function
  25              	main:
  26              	.LFB63:
  27              		.file 1 "main.c"
   1:main.c        **** #include "project.h"
   2:main.c        **** #include "Motor.h"
   3:main.c        **** #include "tfInput.h"
   4:main.c        **** 
   5:main.c        **** // Function prototypes
   6:main.c        **** CY_ISR_PROTO(ISR_UART_rx_handler);
   7:main.c        **** void handleByteReceived(uint8_t byteReceived);
   8:main.c        **** 
   9:main.c        **** void Motor_increaseSpeed(int Motor, int *Motor_speed);
  10:main.c        **** void Motor_decreaseSpeed(int Motor, int *Motor_speed);
  11:main.c        **** 
  12:main.c        **** 
  13:main.c        **** // Global variables for motor speeds
  14:main.c        **** int Motor0_speed = 1000;
  15:main.c        **** int Motor1_speed = 1000;
  16:main.c        **** int offset = 5;
  17:main.c        **** int speed;
  18:main.c        **** 
  19:main.c        **** int main(void)
  20:main.c        **** {
  28              		.loc 1 20 0
  29              		.cfi_startproc
  30              		@ Volatile: function does not return.
  31              		@ args = 0, pretend = 0, frame = 0
  32              		@ frame_needed = 0, uses_anonymous_args = 0
  33 0000 08B5     		push	{r3, lr}
  34              		.cfi_def_cfa_offset 8
  35              		.cfi_offset 3, -8
  36              		.cfi_offset 14, -4
  21:main.c        ****     CyGlobalIntEnable; /* Enable global interrupts. */
ARM GAS  C:\Users\Jacob\AppData\Local\Temp\cc1Gw3Sn.s 			page 2


  37              		.loc 1 21 0
  38              		.syntax unified
  39              	@ 21 "main.c" 1
  40 0002 62B6     		CPSIE   i
  41              	@ 0 "" 2
  22:main.c        ****     
  23:main.c        ****     isr_uart_rx_StartEx(ISR_UART_rx_handler);
  42              		.loc 1 23 0
  43              		.thumb
  44              		.syntax unified
  45 0004 0348     		ldr	r0, .L4
  46 0006 FFF7FEFF 		bl	isr_uart_rx_StartEx
  47              	.LVL0:
  24:main.c        ****     UART_1_Start();
  48              		.loc 1 24 0
  49 000a FFF7FEFF 		bl	UART_1_Start
  50              	.LVL1:
  25:main.c        ****     Motor_Init();
  51              		.loc 1 25 0
  52 000e FFF7FEFF 		bl	Motor_Init
  53              	.LVL2:
  54              	.L2:
  55 0012 FEE7     		b	.L2
  56              	.L5:
  57              		.align	2
  58              	.L4:
  59 0014 00000000 		.word	ISR_UART_rx_handler
  60              		.cfi_endproc
  61              	.LFE63:
  62              		.size	main, .-main
  63              		.section	.text.handleByteReceived,"ax",%progbits
  64              		.align	2
  65              		.global	handleByteReceived
  66              		.thumb
  67              		.thumb_func
  68              		.type	handleByteReceived, %function
  69              	handleByteReceived:
  70              	.LFB65:
  26:main.c        ****     for (;;)
  27:main.c        ****     {
  28:main.c        ****     }
  29:main.c        **** }
  30:main.c        **** 
  31:main.c        **** // UART interrupt service routine
  32:main.c        **** CY_ISR(ISR_UART_rx_handler)
  33:main.c        **** {
  34:main.c        ****     uint8_t bytesToRead = UART_1_GetRxBufferSize(); // Get the number of bytes to read
  35:main.c        ****     while (bytesToRead > 0)
  36:main.c        ****     {
  37:main.c        ****         uint8_t byteReceived = UART_1_ReadRxData(); // Read a byte from UART
  38:main.c        ****         UART_1_WriteTxData(byteReceived);           // Echo back the received byte
  39:main.c        **** 
  40:main.c        ****         handleByteReceived(byteReceived); // Handle the received byte
  41:main.c        **** 
  42:main.c        ****         bytesToRead--; // Decrement the byte counter
  43:main.c        ****     }
  44:main.c        **** }
ARM GAS  C:\Users\Jacob\AppData\Local\Temp\cc1Gw3Sn.s 			page 3


  45:main.c        **** 
  46:main.c        **** // Handle received byte and perform corresponding action
  47:main.c        **** void handleByteReceived(uint8_t byteReceived)
  48:main.c        **** {
  71              		.loc 1 48 0
  72              		.cfi_startproc
  73              		@ args = 0, pretend = 0, frame = 0
  74              		@ frame_needed = 0, uses_anonymous_args = 0
  75              	.LVL3:
  76 0000 08B5     		push	{r3, lr}
  77              		.cfi_def_cfa_offset 8
  78              		.cfi_offset 3, -8
  79              		.cfi_offset 14, -4
  49:main.c        ****     switch (byteReceived)
  80              		.loc 1 49 0
  81 0002 3038     		subs	r0, r0, #48
  82              	.LVL4:
  83 0004 4A28     		cmp	r0, #74
  84 0006 52D8     		bhi	.L6
  85 0008 DFE800F0 		tbb	[pc, r0]
  86              	.L9:
  87 000c 3A       		.byte	(.L8-.L9)/2
  88 000d 30       		.byte	(.L10-.L9)/2
  89 000e 35       		.byte	(.L11-.L9)/2
  90 000f 51       		.byte	(.L6-.L9)/2
  91 0010 51       		.byte	(.L6-.L9)/2
  92 0011 51       		.byte	(.L6-.L9)/2
  93 0012 51       		.byte	(.L6-.L9)/2
  94 0013 51       		.byte	(.L6-.L9)/2
  95 0014 51       		.byte	(.L6-.L9)/2
  96 0015 51       		.byte	(.L6-.L9)/2
  97 0016 51       		.byte	(.L6-.L9)/2
  98 0017 51       		.byte	(.L6-.L9)/2
  99 0018 51       		.byte	(.L6-.L9)/2
 100 0019 51       		.byte	(.L6-.L9)/2
 101 001a 51       		.byte	(.L6-.L9)/2
 102 001b 51       		.byte	(.L6-.L9)/2
 103 001c 51       		.byte	(.L6-.L9)/2
 104 001d 51       		.byte	(.L6-.L9)/2
 105 001e 51       		.byte	(.L6-.L9)/2
 106 001f 51       		.byte	(.L6-.L9)/2
 107 0020 51       		.byte	(.L6-.L9)/2
 108 0021 51       		.byte	(.L6-.L9)/2
 109 0022 51       		.byte	(.L6-.L9)/2
 110 0023 51       		.byte	(.L6-.L9)/2
 111 0024 51       		.byte	(.L6-.L9)/2
 112 0025 51       		.byte	(.L6-.L9)/2
 113 0026 51       		.byte	(.L6-.L9)/2
 114 0027 51       		.byte	(.L6-.L9)/2
 115 0028 51       		.byte	(.L6-.L9)/2
 116 0029 51       		.byte	(.L6-.L9)/2
 117 002a 51       		.byte	(.L6-.L9)/2
 118 002b 51       		.byte	(.L6-.L9)/2
 119 002c 51       		.byte	(.L6-.L9)/2
 120 002d 51       		.byte	(.L6-.L9)/2
 121 002e 51       		.byte	(.L6-.L9)/2
 122 002f 51       		.byte	(.L6-.L9)/2
ARM GAS  C:\Users\Jacob\AppData\Local\Temp\cc1Gw3Sn.s 			page 4


 123 0030 51       		.byte	(.L6-.L9)/2
 124 0031 51       		.byte	(.L6-.L9)/2
 125 0032 51       		.byte	(.L6-.L9)/2
 126 0033 51       		.byte	(.L6-.L9)/2
 127 0034 51       		.byte	(.L6-.L9)/2
 128 0035 51       		.byte	(.L6-.L9)/2
 129 0036 51       		.byte	(.L6-.L9)/2
 130 0037 51       		.byte	(.L6-.L9)/2
 131 0038 51       		.byte	(.L6-.L9)/2
 132 0039 51       		.byte	(.L6-.L9)/2
 133 003a 51       		.byte	(.L6-.L9)/2
 134 003b 51       		.byte	(.L6-.L9)/2
 135 003c 51       		.byte	(.L6-.L9)/2
 136 003d 51       		.byte	(.L6-.L9)/2
 137 003e 51       		.byte	(.L6-.L9)/2
 138 003f 47       		.byte	(.L12-.L9)/2
 139 0040 51       		.byte	(.L6-.L9)/2
 140 0041 51       		.byte	(.L6-.L9)/2
 141 0042 51       		.byte	(.L6-.L9)/2
 142 0043 51       		.byte	(.L6-.L9)/2
 143 0044 51       		.byte	(.L6-.L9)/2
 144 0045 51       		.byte	(.L6-.L9)/2
 145 0046 51       		.byte	(.L6-.L9)/2
 146 0047 51       		.byte	(.L6-.L9)/2
 147 0048 51       		.byte	(.L6-.L9)/2
 148 0049 51       		.byte	(.L6-.L9)/2
 149 004a 51       		.byte	(.L6-.L9)/2
 150 004b 51       		.byte	(.L6-.L9)/2
 151 004c 51       		.byte	(.L6-.L9)/2
 152 004d 26       		.byte	(.L13-.L9)/2
 153 004e 51       		.byte	(.L6-.L9)/2
 154 004f 51       		.byte	(.L6-.L9)/2
 155 0050 51       		.byte	(.L6-.L9)/2
 156 0051 51       		.byte	(.L6-.L9)/2
 157 0052 4D       		.byte	(.L14-.L9)/2
 158 0053 2B       		.byte	(.L15-.L9)/2
 159 0054 42       		.byte	(.L16-.L9)/2
 160 0055 51       		.byte	(.L6-.L9)/2
 161 0056 3D       		.byte	(.L17-.L9)/2
 162 0057 00       		.p2align 1
 163              	.L13:
  50:main.c        ****     {
  51:main.c        ****     case 'q':
  52:main.c        ****         setspeed(1, 125);
 164              		.loc 1 52 0
 165 0058 7D21     		movs	r1, #125
 166 005a 0120     		movs	r0, #1
 167 005c FFF7FEFF 		bl	setspeed
 168              	.LVL5:
  53:main.c        ****         break;
 169              		.loc 1 53 0
 170 0060 08BD     		pop	{r3, pc}
 171              	.L15:
  54:main.c        ****     case 'w':
  55:main.c        ****         setspeed(1, 126);
 172              		.loc 1 55 0
 173 0062 7E21     		movs	r1, #126
ARM GAS  C:\Users\Jacob\AppData\Local\Temp\cc1Gw3Sn.s 			page 5


 174 0064 0120     		movs	r0, #1
 175 0066 FFF7FEFF 		bl	setspeed
 176              	.LVL6:
  56:main.c        ****         break;
 177              		.loc 1 56 0
 178 006a 08BD     		pop	{r3, pc}
 179              	.L10:
  57:main.c        ****     case '1':
  58:main.c        ****         setspeed(1, 127);
 180              		.loc 1 58 0
 181 006c 7F21     		movs	r1, #127
 182 006e 0120     		movs	r0, #1
 183 0070 FFF7FEFF 		bl	setspeed
 184              	.LVL7:
  59:main.c        ****         break;
 185              		.loc 1 59 0
 186 0074 08BD     		pop	{r3, pc}
 187              	.L11:
  60:main.c        ****     case '2':
  61:main.c        ****         setspeed(1, 128);
 188              		.loc 1 61 0
 189 0076 8021     		movs	r1, #128
 190 0078 0120     		movs	r0, #1
 191 007a FFF7FEFF 		bl	setspeed
 192              	.LVL8:
  62:main.c        ****         break;
 193              		.loc 1 62 0
 194 007e 08BD     		pop	{r3, pc}
 195              	.L8:
  63:main.c        ****     case '0':
  64:main.c        ****         stop(); // Stop both motors
 196              		.loc 1 64 0
 197 0080 FFF7FEFF 		bl	stop
 198              	.LVL9:
  65:main.c        ****         break;
 199              		.loc 1 65 0
 200 0084 08BD     		pop	{r3, pc}
 201              	.L17:
  66:main.c        ****     case 'z':
  67:main.c        ****         setspeed(0, 0);
 202              		.loc 1 67 0
 203 0086 0021     		movs	r1, #0
 204 0088 0846     		mov	r0, r1
 205 008a FFF7FEFF 		bl	setspeed
 206              	.LVL10:
  68:main.c        ****         break;
 207              		.loc 1 68 0
 208 008e 08BD     		pop	{r3, pc}
 209              	.L16:
  69:main.c        ****     case 'x':
  70:main.c        ****         setspeed(0, 180);
 210              		.loc 1 70 0
 211 0090 B421     		movs	r1, #180
 212 0092 0020     		movs	r0, #0
 213 0094 FFF7FEFF 		bl	setspeed
 214              	.LVL11:
  71:main.c        ****         break;
ARM GAS  C:\Users\Jacob\AppData\Local\Temp\cc1Gw3Sn.s 			page 6


 215              		.loc 1 71 0
 216 0098 08BD     		pop	{r3, pc}
 217              	.L12:
  72:main.c        ****     case 'c':
  73:main.c        ****         setspeed(0, 1000);
 218              		.loc 1 73 0
 219 009a 4FF47A71 		mov	r1, #1000
 220 009e 0020     		movs	r0, #0
 221 00a0 FFF7FEFF 		bl	setspeed
 222              	.LVL12:
  74:main.c        ****         break;
 223              		.loc 1 74 0
 224 00a4 08BD     		pop	{r3, pc}
 225              	.L14:
  75:main.c        ****     case 'v':
  76:main.c        ****         setspeed(0, 150);
 226              		.loc 1 76 0
 227 00a6 9621     		movs	r1, #150
 228 00a8 0020     		movs	r0, #0
 229 00aa FFF7FEFF 		bl	setspeed
 230              	.LVL13:
 231              	.L6:
 232 00ae 08BD     		pop	{r3, pc}
 233              		.cfi_endproc
 234              	.LFE65:
 235              		.size	handleByteReceived, .-handleByteReceived
 236              		.section	.text.ISR_UART_rx_handler,"ax",%progbits
 237              		.align	2
 238              		.global	ISR_UART_rx_handler
 239              		.thumb
 240              		.thumb_func
 241              		.type	ISR_UART_rx_handler, %function
 242              	ISR_UART_rx_handler:
 243              	.LFB64:
  33:main.c        ****     uint8_t bytesToRead = UART_1_GetRxBufferSize(); // Get the number of bytes to read
 244              		.loc 1 33 0
 245              		.cfi_startproc
 246              		@ args = 0, pretend = 0, frame = 0
 247              		@ frame_needed = 0, uses_anonymous_args = 0
 248 0000 38B5     		push	{r3, r4, r5, lr}
 249              		.cfi_def_cfa_offset 16
 250              		.cfi_offset 3, -16
 251              		.cfi_offset 4, -12
 252              		.cfi_offset 5, -8
 253              		.cfi_offset 14, -4
  34:main.c        ****     while (bytesToRead > 0)
 254              		.loc 1 34 0
 255 0002 FFF7FEFF 		bl	UART_1_GetRxBufferSize
 256              	.LVL14:
 257 0006 0446     		mov	r4, r0
 258              	.LVL15:
  35:main.c        ****     {
 259              		.loc 1 35 0
 260 0008 09E0     		b	.L20
 261              	.L21:
 262              	.LBB2:
  37:main.c        ****         UART_1_WriteTxData(byteReceived);           // Echo back the received byte
ARM GAS  C:\Users\Jacob\AppData\Local\Temp\cc1Gw3Sn.s 			page 7


 263              		.loc 1 37 0
 264 000a FFF7FEFF 		bl	UART_1_ReadRxData
 265              	.LVL16:
 266 000e 0546     		mov	r5, r0
 267              	.LVL17:
  38:main.c        **** 
 268              		.loc 1 38 0
 269 0010 FFF7FEFF 		bl	UART_1_WriteTxData
 270              	.LVL18:
  40:main.c        **** 
 271              		.loc 1 40 0
 272 0014 2846     		mov	r0, r5
 273 0016 FFF7FEFF 		bl	handleByteReceived
 274              	.LVL19:
  42:main.c        ****     }
 275              		.loc 1 42 0
 276 001a 013C     		subs	r4, r4, #1
 277              	.LVL20:
 278 001c E4B2     		uxtb	r4, r4
 279              	.LVL21:
 280              	.L20:
 281              	.LBE2:
  35:main.c        ****     {
 282              		.loc 1 35 0
 283 001e 002C     		cmp	r4, #0
 284 0020 F3D1     		bne	.L21
  44:main.c        **** 
 285              		.loc 1 44 0
 286 0022 38BD     		pop	{r3, r4, r5, pc}
 287              		.cfi_endproc
 288              	.LFE64:
 289              		.size	ISR_UART_rx_handler, .-ISR_UART_rx_handler
 290              		.section	.text.Motor_increaseSpeed,"ax",%progbits
 291              		.align	2
 292              		.global	Motor_increaseSpeed
 293              		.thumb
 294              		.thumb_func
 295              		.type	Motor_increaseSpeed, %function
 296              	Motor_increaseSpeed:
 297              	.LFB66:
  77:main.c        ****         break;
  78:main.c        ****     default:
  79:main.c        ****         // Do nothing for unrecognized commands
  80:main.c        ****         break;
  81:main.c        ****     }
  82:main.c        **** }
  83:main.c        **** 
  84:main.c        **** // Increase motor speed
  85:main.c        **** void Motor_increaseSpeed(int Motor, int *Motor_speed)
  86:main.c        **** {
 298              		.loc 1 86 0
 299              		.cfi_startproc
 300              		@ args = 0, pretend = 0, frame = 0
 301              		@ frame_needed = 0, uses_anonymous_args = 0
 302              	.LVL22:
 303 0000 10B5     		push	{r4, lr}
 304              		.cfi_def_cfa_offset 8
ARM GAS  C:\Users\Jacob\AppData\Local\Temp\cc1Gw3Sn.s 			page 8


 305              		.cfi_offset 4, -8
 306              		.cfi_offset 14, -4
 307 0002 0C46     		mov	r4, r1
  87:main.c        ****     if (*Motor_speed < 2000 && Motor == 0)
 308              		.loc 1 87 0
 309 0004 0B68     		ldr	r3, [r1]
 310 0006 B3F5FA6F 		cmp	r3, #2000
 311 000a 0ADA     		bge	.L24
 312              		.loc 1 87 0 is_stmt 0 discriminator 1
 313 000c 48B9     		cbnz	r0, .L24
  88:main.c        ****     {
  89:main.c        ****         UART_1_PutString("Increasing speed\r\n");
 314              		.loc 1 89 0 is_stmt 1
 315 000e 0E48     		ldr	r0, .L28
 316              	.LVL23:
 317 0010 FFF7FEFF 		bl	UART_1_PutString
 318              	.LVL24:
  90:main.c        ****         (*Motor_speed)++;
 319              		.loc 1 90 0
 320 0014 2068     		ldr	r0, [r4]
 321 0016 0130     		adds	r0, r0, #1
 322 0018 2060     		str	r0, [r4]
  91:main.c        ****         PWM_1_WriteCompare1(*Motor_speed); // Update PWM compare value for motor 0
 323              		.loc 1 91 0
 324 001a 80B2     		uxth	r0, r0
 325 001c FFF7FEFF 		bl	PWM_1_WriteCompare1
 326              	.LVL25:
 327 0020 10BD     		pop	{r4, pc}
 328              	.LVL26:
 329              	.L24:
  92:main.c        ****     }
  93:main.c        ****     else if (*Motor_speed < 2000 && Motor == 1)
 330              		.loc 1 93 0
 331 0022 B3F5FA6F 		cmp	r3, #2000
 332 0026 0BDA     		bge	.L26
 333              		.loc 1 93 0 is_stmt 0 discriminator 1
 334 0028 0128     		cmp	r0, #1
 335 002a 09D1     		bne	.L26
  94:main.c        ****     {
  95:main.c        ****         UART_1_PutString("Increasing speed\r\n");
 336              		.loc 1 95 0 is_stmt 1
 337 002c 0648     		ldr	r0, .L28
 338              	.LVL27:
 339 002e FFF7FEFF 		bl	UART_1_PutString
 340              	.LVL28:
  96:main.c        ****         (*Motor_speed)++;
 341              		.loc 1 96 0
 342 0032 2068     		ldr	r0, [r4]
 343 0034 0130     		adds	r0, r0, #1
 344 0036 2060     		str	r0, [r4]
  97:main.c        ****         PWM_1_WriteCompare2(*Motor_speed); // Update PWM compare value for motor 1
 345              		.loc 1 97 0
 346 0038 80B2     		uxth	r0, r0
 347 003a FFF7FEFF 		bl	PWM_1_WriteCompare2
 348              	.LVL29:
 349 003e 10BD     		pop	{r4, pc}
 350              	.LVL30:
ARM GAS  C:\Users\Jacob\AppData\Local\Temp\cc1Gw3Sn.s 			page 9


 351              	.L26:
  98:main.c        ****     }
  99:main.c        ****     else
 100:main.c        ****     {
 101:main.c        ****         UART_1_PutString("TOO FAST\r\n"); // Speed limit reached
 352              		.loc 1 101 0
 353 0040 0248     		ldr	r0, .L28+4
 354              	.LVL31:
 355 0042 FFF7FEFF 		bl	UART_1_PutString
 356              	.LVL32:
 357 0046 10BD     		pop	{r4, pc}
 358              	.LVL33:
 359              	.L29:
 360              		.align	2
 361              	.L28:
 362 0048 00000000 		.word	.LC0
 363 004c 14000000 		.word	.LC1
 364              		.cfi_endproc
 365              	.LFE66:
 366              		.size	Motor_increaseSpeed, .-Motor_increaseSpeed
 367              		.section	.text.Motor_decreaseSpeed,"ax",%progbits
 368              		.align	2
 369              		.global	Motor_decreaseSpeed
 370              		.thumb
 371              		.thumb_func
 372              		.type	Motor_decreaseSpeed, %function
 373              	Motor_decreaseSpeed:
 374              	.LFB67:
 102:main.c        ****     }
 103:main.c        **** }
 104:main.c        **** 
 105:main.c        **** // Decrease motor speed
 106:main.c        **** void Motor_decreaseSpeed(int Motor, int *Motor_speed)
 107:main.c        **** {
 375              		.loc 1 107 0
 376              		.cfi_startproc
 377              		@ args = 0, pretend = 0, frame = 0
 378              		@ frame_needed = 0, uses_anonymous_args = 0
 379              	.LVL34:
 380 0000 10B5     		push	{r4, lr}
 381              		.cfi_def_cfa_offset 8
 382              		.cfi_offset 4, -8
 383              		.cfi_offset 14, -4
 384 0002 0C46     		mov	r4, r1
 108:main.c        ****     if (*Motor_speed > 1000 && Motor == 0)
 385              		.loc 1 108 0
 386 0004 0B68     		ldr	r3, [r1]
 387 0006 B3F57A7F 		cmp	r3, #1000
 388 000a 0ADD     		ble	.L31
 389              		.loc 1 108 0 is_stmt 0 discriminator 1
 390 000c 48B9     		cbnz	r0, .L31
 109:main.c        ****     {
 110:main.c        ****         UART_1_PutString("Decreasing speed\r\n");
 391              		.loc 1 110 0 is_stmt 1
 392 000e 0E48     		ldr	r0, .L35
 393              	.LVL35:
 394 0010 FFF7FEFF 		bl	UART_1_PutString
ARM GAS  C:\Users\Jacob\AppData\Local\Temp\cc1Gw3Sn.s 			page 10


 395              	.LVL36:
 111:main.c        ****         (*Motor_speed)--;
 396              		.loc 1 111 0
 397 0014 2068     		ldr	r0, [r4]
 398 0016 0138     		subs	r0, r0, #1
 399 0018 2060     		str	r0, [r4]
 112:main.c        ****         PWM_1_WriteCompare1(*Motor_speed); // Update PWM compare value for motor 0
 400              		.loc 1 112 0
 401 001a 80B2     		uxth	r0, r0
 402 001c FFF7FEFF 		bl	PWM_1_WriteCompare1
 403              	.LVL37:
 404 0020 10BD     		pop	{r4, pc}
 405              	.LVL38:
 406              	.L31:
 113:main.c        ****     }
 114:main.c        ****     else if (*Motor_speed > 1000 && Motor == 1)
 407              		.loc 1 114 0
 408 0022 B3F57A7F 		cmp	r3, #1000
 409 0026 0BDD     		ble	.L33
 410              		.loc 1 114 0 is_stmt 0 discriminator 1
 411 0028 0128     		cmp	r0, #1
 412 002a 09D1     		bne	.L33
 115:main.c        ****     {
 116:main.c        ****         UART_1_PutString("Decreasing speed\r\n");
 413              		.loc 1 116 0 is_stmt 1
 414 002c 0648     		ldr	r0, .L35
 415              	.LVL39:
 416 002e FFF7FEFF 		bl	UART_1_PutString
 417              	.LVL40:
 117:main.c        ****         (*Motor_speed)--;
 418              		.loc 1 117 0
 419 0032 2068     		ldr	r0, [r4]
 420 0034 0138     		subs	r0, r0, #1
 421 0036 2060     		str	r0, [r4]
 118:main.c        ****         PWM_1_WriteCompare2(*Motor_speed); // Update PWM compare value for motor 1
 422              		.loc 1 118 0
 423 0038 80B2     		uxth	r0, r0
 424 003a FFF7FEFF 		bl	PWM_1_WriteCompare2
 425              	.LVL41:
 426 003e 10BD     		pop	{r4, pc}
 427              	.LVL42:
 428              	.L33:
 119:main.c        ****     }
 120:main.c        ****     else
 121:main.c        ****     {
 122:main.c        ****         UART_1_PutString("TOO SLOW\r\n"); // Speed limit reached
 429              		.loc 1 122 0
 430 0040 0248     		ldr	r0, .L35+4
 431              	.LVL43:
 432 0042 FFF7FEFF 		bl	UART_1_PutString
 433              	.LVL44:
 434 0046 10BD     		pop	{r4, pc}
 435              	.LVL45:
 436              	.L36:
 437              		.align	2
 438              	.L35:
 439 0048 20000000 		.word	.LC2
ARM GAS  C:\Users\Jacob\AppData\Local\Temp\cc1Gw3Sn.s 			page 11


 440 004c 34000000 		.word	.LC3
 441              		.cfi_endproc
 442              	.LFE67:
 443              		.size	Motor_decreaseSpeed, .-Motor_decreaseSpeed
 444              		.comm	speed,4,4
 445              		.global	offset
 446              		.global	Motor1_speed
 447              		.global	Motor0_speed
 448              		.data
 449              		.align	2
 450              		.type	offset, %object
 451              		.size	offset, 4
 452              	offset:
 453 0000 05000000 		.word	5
 454              		.type	Motor1_speed, %object
 455              		.size	Motor1_speed, 4
 456              	Motor1_speed:
 457 0004 E8030000 		.word	1000
 458              		.type	Motor0_speed, %object
 459              		.size	Motor0_speed, 4
 460              	Motor0_speed:
 461 0008 E8030000 		.word	1000
 462              		.section	.rodata.str1.4,"aMS",%progbits,1
 463              		.align	2
 464              	.LC0:
 465 0000 496E6372 		.ascii	"Increasing speed\015\012\000"
 465      65617369 
 465      6E672073 
 465      70656564 
 465      0D0A00
 466 0013 00       		.space	1
 467              	.LC1:
 468 0014 544F4F20 		.ascii	"TOO FAST\015\012\000"
 468      46415354 
 468      0D0A00
 469 001f 00       		.space	1
 470              	.LC2:
 471 0020 44656372 		.ascii	"Decreasing speed\015\012\000"
 471      65617369 
 471      6E672073 
 471      70656564 
 471      0D0A00
 472 0033 00       		.space	1
 473              	.LC3:
 474 0034 544F4F20 		.ascii	"TOO SLOW\015\012\000"
 474      534C4F57 
 474      0D0A00
 475              		.text
 476              	.Letext0:
 477              		.file 2 "c:\\program files (x86)\\cypress\\psoc creator\\4.4\\psoc creator\\import\\gnu\\arm\\5.4.
 478              		.file 3 "c:\\program files (x86)\\cypress\\psoc creator\\4.4\\psoc creator\\import\\gnu\\arm\\5.4.
 479              		.file 4 "Generated_Source\\PSoC5/core_cm3.h"
 480              		.file 5 "Generated_Source\\PSoC5/isr_uart_rx.h"
 481              		.file 6 "Generated_Source\\PSoC5/UART_1.h"
 482              		.file 7 "Motor.h"
 483              		.file 8 "Generated_Source\\PSoC5/PWM_1.h"