ARM GAS  C:\Users\degn\AppData\Local\Temp\ccQdAMAZ.s 			page 1


   1              		.syntax unified
   2              		.cpu cortex-m3
   3              		.fpu softvfp
   4              		.eabi_attribute 20, 1
   5              		.eabi_attribute 21, 1
   6              		.eabi_attribute 23, 3
   7              		.eabi_attribute 24, 1
   8              		.eabi_attribute 25, 1
   9              		.eabi_attribute 26, 1
  10              		.eabi_attribute 30, 1
  11              		.eabi_attribute 34, 1
  12              		.eabi_attribute 18, 4
  13              		.thumb
  14              		.syntax unified
  15              		.file	"interface.c"
  16              		.text
  17              	.Ltext0:
  18              		.cfi_sections	.debug_frame
  19              		.section	.text.ISR_toggle_handler,"ax",%progbits
  20              		.align	2
  21              		.global	ISR_toggle_handler
  22              		.thumb
  23              		.thumb_func
  24              		.type	ISR_toggle_handler, %function
  25              	ISR_toggle_handler:
  26              	.LFB70:
  27              		.file 1 "interface.c"
   1:interface.c   **** #include "project.h"
   2:interface.c   **** #include "interface.h"
   3:interface.c   **** 
   4:interface.c   **** // Global Variels.
   5:interface.c   **** char LCDbuffer[20];
   6:interface.c   **** int block = 0;
   7:interface.c   **** 
   8:interface.c   **** // Define constants
   9:interface.c   **** #define adc_min 200   // ADC value corresponding to -35 degrees
  10:interface.c   **** #define adc_max 3900 // ADC value corresponding to +35 degrees
  11:interface.c   **** #define deg_min -35  // Minimum degrees
  12:interface.c   **** #define deg_max 35   // Maximum degrees
  13:interface.c   **** 
  14:interface.c   **** void init_interface()
  15:interface.c   **** {
  16:interface.c   ****     Init_LCD();
  17:interface.c   ****     Init_ADC();
  18:interface.c   ****     isr_toggle_StartEx(ISR_toggle_handler);
  19:interface.c   ****     isr_motorSwitch_On_StartEx(ISR_motorSwitch_On_handler);
  20:interface.c   ****     isr_motorSwitch_Off_StartEx(ISR_motorSwitch_Off_handler);
  21:interface.c   **** }
  22:interface.c   **** 
  23:interface.c   **** void Init_LCD()
  24:interface.c   **** {
  25:interface.c   ****     LCD_ClearDisplay();
  26:interface.c   ****     LCD_Start();
  27:interface.c   ****     LCD_Position(0, 0);
  28:interface.c   ****     LCD_PrintString("Starting");
  29:interface.c   ****     LCD_Position(1, 0);
  30:interface.c   ****     LCD_PrintString("Dron-A Lisa");
ARM GAS  C:\Users\degn\AppData\Local\Temp\ccQdAMAZ.s 			page 2


  31:interface.c   **** }
  32:interface.c   **** 
  33:interface.c   **** void Init_ADC()
  34:interface.c   **** {
  35:interface.c   ****     ADC_SAR_1_Start();
  36:interface.c   ****     ADC_SAR_1_StartConvert();
  37:interface.c   **** }
  38:interface.c   **** 
  39:interface.c   **** 
  40:interface.c   **** void writeLCD(int setpoint, float sensor)
  41:interface.c   **** {
  42:interface.c   ****     char buff[16];
  43:interface.c   ****     LCD_ClearDisplay();
  44:interface.c   ****     sprintf(buff,"Setpoint: %i", setpoint);
  45:interface.c   ****     LCD_Position(0, 0);
  46:interface.c   ****     LCD_PrintString(buff);
  47:interface.c   ****     sprintf(buff,"Sensor: %.2f", sensor);
  48:interface.c   ****     LCD_Position(1, 0);
  49:interface.c   ****     LCD_PrintString(buff);
  50:interface.c   **** }
  51:interface.c   **** 
  52:interface.c   **** int interfaceSetpoint()
  53:interface.c   **** {
  54:interface.c   ****     //return adcToDegrees( FIRMovingAverage( ADC_SAR_1_GetResult16() ) );
  55:interface.c   ****     return adcToDegrees( ADC_SAR_1_GetResult16() );
  56:interface.c   **** }
  57:interface.c   **** 
  58:interface.c   **** int adcToDegrees(int adc_value)
  59:interface.c   **** {
  60:interface.c   **** 
  61:interface.c   ****     // Check if adc_value is out of bounds
  62:interface.c   ****     if (adc_value < adc_min)
  63:interface.c   ****     {
  64:interface.c   ****         adc_value = adc_min;
  65:interface.c   ****     }
  66:interface.c   ****     else if (adc_value > adc_max)
  67:interface.c   ****     {
  68:interface.c   ****         adc_value = adc_max;
  69:interface.c   ****     }
  70:interface.c   **** 
  71:interface.c   ****     // Calculate degrees using linear interpolation formula
  72:interface.c   ****     int degrees = ((adc_value - adc_min) * (deg_max - deg_min)) / (adc_max - adc_min) + deg_min;
  73:interface.c   **** 
  74:interface.c   ****     return degrees;
  75:interface.c   **** }
  76:interface.c   **** 
  77:interface.c   **** CY_ISR(ISR_toggle_handler)
  78:interface.c   **** {
  28              		.loc 1 78 0
  29              		.cfi_startproc
  30              		@ args = 0, pretend = 0, frame = 0
  31              		@ frame_needed = 0, uses_anonymous_args = 0
  32              		@ link register save eliminated.
  79:interface.c   ****     block = !block;
  33              		.loc 1 79 0
  34 0000 034A     		ldr	r2, .L2
  35 0002 1368     		ldr	r3, [r2]
ARM GAS  C:\Users\degn\AppData\Local\Temp\ccQdAMAZ.s 			page 3


  36 0004 B3FA83F3 		clz	r3, r3
  37 0008 5B09     		lsrs	r3, r3, #5
  38 000a 1360     		str	r3, [r2]
  39 000c 7047     		bx	lr
  40              	.L3:
  41 000e 00BF     		.align	2
  42              	.L2:
  43 0010 00000000 		.word	.LANCHOR0
  44              		.cfi_endproc
  45              	.LFE70:
  46              		.size	ISR_toggle_handler, .-ISR_toggle_handler
  47              		.section	.text.Init_LCD,"ax",%progbits
  48              		.align	2
  49              		.global	Init_LCD
  50              		.thumb
  51              		.thumb_func
  52              		.type	Init_LCD, %function
  53              	Init_LCD:
  54              	.LFB65:
  24:interface.c   ****     LCD_ClearDisplay();
  55              		.loc 1 24 0
  56              		.cfi_startproc
  57              		@ args = 0, pretend = 0, frame = 0
  58              		@ frame_needed = 0, uses_anonymous_args = 0
  59 0000 08B5     		push	{r3, lr}
  60              		.cfi_def_cfa_offset 8
  61              		.cfi_offset 3, -8
  62              		.cfi_offset 14, -4
  25:interface.c   ****     LCD_Start();
  63              		.loc 1 25 0
  64 0002 0120     		movs	r0, #1
  65 0004 FFF7FEFF 		bl	LCD_WriteControl
  66              	.LVL0:
  26:interface.c   ****     LCD_Position(0, 0);
  67              		.loc 1 26 0
  68 0008 FFF7FEFF 		bl	LCD_Start
  69              	.LVL1:
  27:interface.c   ****     LCD_PrintString("Starting");
  70              		.loc 1 27 0
  71 000c 0021     		movs	r1, #0
  72 000e 0846     		mov	r0, r1
  73 0010 FFF7FEFF 		bl	LCD_Position
  74              	.LVL2:
  28:interface.c   ****     LCD_Position(1, 0);
  75              		.loc 1 28 0
  76 0014 0548     		ldr	r0, .L6
  77 0016 FFF7FEFF 		bl	LCD_PrintString
  78              	.LVL3:
  29:interface.c   ****     LCD_PrintString("Dron-A Lisa");
  79              		.loc 1 29 0
  80 001a 0021     		movs	r1, #0
  81 001c 0120     		movs	r0, #1
  82 001e FFF7FEFF 		bl	LCD_Position
  83              	.LVL4:
  30:interface.c   **** }
  84              		.loc 1 30 0
  85 0022 0348     		ldr	r0, .L6+4
ARM GAS  C:\Users\degn\AppData\Local\Temp\ccQdAMAZ.s 			page 4


  86 0024 FFF7FEFF 		bl	LCD_PrintString
  87              	.LVL5:
  88 0028 08BD     		pop	{r3, pc}
  89              	.L7:
  90 002a 00BF     		.align	2
  91              	.L6:
  92 002c 00000000 		.word	.LC0
  93 0030 0C000000 		.word	.LC1
  94              		.cfi_endproc
  95              	.LFE65:
  96              		.size	Init_LCD, .-Init_LCD
  97              		.section	.text.Init_ADC,"ax",%progbits
  98              		.align	2
  99              		.global	Init_ADC
 100              		.thumb
 101              		.thumb_func
 102              		.type	Init_ADC, %function
 103              	Init_ADC:
 104              	.LFB66:
  34:interface.c   ****     ADC_SAR_1_Start();
 105              		.loc 1 34 0
 106              		.cfi_startproc
 107              		@ args = 0, pretend = 0, frame = 0
 108              		@ frame_needed = 0, uses_anonymous_args = 0
 109 0000 08B5     		push	{r3, lr}
 110              		.cfi_def_cfa_offset 8
 111              		.cfi_offset 3, -8
 112              		.cfi_offset 14, -4
  35:interface.c   ****     ADC_SAR_1_StartConvert();
 113              		.loc 1 35 0
 114 0002 FFF7FEFF 		bl	ADC_SAR_1_Start
 115              	.LVL6:
  36:interface.c   **** }
 116              		.loc 1 36 0
 117 0006 FFF7FEFF 		bl	ADC_SAR_1_StartConvert
 118              	.LVL7:
 119 000a 08BD     		pop	{r3, pc}
 120              		.cfi_endproc
 121              	.LFE66:
 122              		.size	Init_ADC, .-Init_ADC
 123              		.section	.text.init_interface,"ax",%progbits
 124              		.align	2
 125              		.global	init_interface
 126              		.thumb
 127              		.thumb_func
 128              		.type	init_interface, %function
 129              	init_interface:
 130              	.LFB64:
  15:interface.c   ****     Init_LCD();
 131              		.loc 1 15 0
 132              		.cfi_startproc
 133              		@ args = 0, pretend = 0, frame = 0
 134              		@ frame_needed = 0, uses_anonymous_args = 0
 135 0000 08B5     		push	{r3, lr}
 136              		.cfi_def_cfa_offset 8
 137              		.cfi_offset 3, -8
 138              		.cfi_offset 14, -4
ARM GAS  C:\Users\degn\AppData\Local\Temp\ccQdAMAZ.s 			page 5


  16:interface.c   ****     Init_ADC();
 139              		.loc 1 16 0
 140 0002 FFF7FEFF 		bl	Init_LCD
 141              	.LVL8:
  17:interface.c   ****     isr_toggle_StartEx(ISR_toggle_handler);
 142              		.loc 1 17 0
 143 0006 FFF7FEFF 		bl	Init_ADC
 144              	.LVL9:
  18:interface.c   ****     isr_motorSwitch_On_StartEx(ISR_motorSwitch_On_handler);
 145              		.loc 1 18 0
 146 000a 0548     		ldr	r0, .L12
 147 000c FFF7FEFF 		bl	isr_toggle_StartEx
 148              	.LVL10:
  19:interface.c   ****     isr_motorSwitch_Off_StartEx(ISR_motorSwitch_Off_handler);
 149              		.loc 1 19 0
 150 0010 0448     		ldr	r0, .L12+4
 151 0012 FFF7FEFF 		bl	isr_motorSwitch_On_StartEx
 152              	.LVL11:
  20:interface.c   **** }
 153              		.loc 1 20 0
 154 0016 0448     		ldr	r0, .L12+8
 155 0018 FFF7FEFF 		bl	isr_motorSwitch_Off_StartEx
 156              	.LVL12:
 157 001c 08BD     		pop	{r3, pc}
 158              	.L13:
 159 001e 00BF     		.align	2
 160              	.L12:
 161 0020 00000000 		.word	ISR_toggle_handler
 162 0024 00000000 		.word	ISR_motorSwitch_On_handler
 163 0028 00000000 		.word	ISR_motorSwitch_Off_handler
 164              		.cfi_endproc
 165              	.LFE64:
 166              		.size	init_interface, .-init_interface
 167              		.global	__aeabi_f2d
 168              		.section	.text.writeLCD,"ax",%progbits
 169              		.align	2
 170              		.global	writeLCD
 171              		.thumb
 172              		.thumb_func
 173              		.type	writeLCD, %function
 174              	writeLCD:
 175              	.LFB67:
  41:interface.c   ****     char buff[16];
 176              		.loc 1 41 0
 177              		.cfi_startproc
 178              		@ args = 0, pretend = 0, frame = 16
 179              		@ frame_needed = 0, uses_anonymous_args = 0
 180              	.LVL13:
 181 0000 30B5     		push	{r4, r5, lr}
 182              		.cfi_def_cfa_offset 12
 183              		.cfi_offset 4, -12
 184              		.cfi_offset 5, -8
 185              		.cfi_offset 14, -4
 186 0002 85B0     		sub	sp, sp, #20
 187              		.cfi_def_cfa_offset 32
 188 0004 0546     		mov	r5, r0
 189 0006 0C46     		mov	r4, r1
ARM GAS  C:\Users\degn\AppData\Local\Temp\ccQdAMAZ.s 			page 6


  43:interface.c   ****     sprintf(buff,"Setpoint: %i", setpoint);
 190              		.loc 1 43 0
 191 0008 0120     		movs	r0, #1
 192              	.LVL14:
 193 000a FFF7FEFF 		bl	LCD_WriteControl
 194              	.LVL15:
  44:interface.c   ****     LCD_Position(0, 0);
 195              		.loc 1 44 0
 196 000e 2A46     		mov	r2, r5
 197 0010 0E49     		ldr	r1, .L16
 198 0012 6846     		mov	r0, sp
 199 0014 FFF7FEFF 		bl	sprintf
 200              	.LVL16:
  45:interface.c   ****     LCD_PrintString(buff);
 201              		.loc 1 45 0
 202 0018 0021     		movs	r1, #0
 203 001a 0846     		mov	r0, r1
 204 001c FFF7FEFF 		bl	LCD_Position
 205              	.LVL17:
  46:interface.c   ****     sprintf(buff,"Sensor: %.2f", sensor);
 206              		.loc 1 46 0
 207 0020 6846     		mov	r0, sp
 208 0022 FFF7FEFF 		bl	LCD_PrintString
 209              	.LVL18:
  47:interface.c   ****     LCD_Position(1, 0);
 210              		.loc 1 47 0
 211 0026 2046     		mov	r0, r4
 212 0028 FFF7FEFF 		bl	__aeabi_f2d
 213              	.LVL19:
 214 002c 0246     		mov	r2, r0
 215 002e 0B46     		mov	r3, r1
 216 0030 0749     		ldr	r1, .L16+4
 217 0032 6846     		mov	r0, sp
 218 0034 FFF7FEFF 		bl	sprintf
 219              	.LVL20:
  48:interface.c   ****     LCD_PrintString(buff);
 220              		.loc 1 48 0
 221 0038 0021     		movs	r1, #0
 222 003a 0120     		movs	r0, #1
 223 003c FFF7FEFF 		bl	LCD_Position
 224              	.LVL21:
  49:interface.c   **** }
 225              		.loc 1 49 0
 226 0040 6846     		mov	r0, sp
 227 0042 FFF7FEFF 		bl	LCD_PrintString
 228              	.LVL22:
  50:interface.c   **** 
 229              		.loc 1 50 0
 230 0046 05B0     		add	sp, sp, #20
 231              		.cfi_def_cfa_offset 12
 232              		@ sp needed
 233 0048 30BD     		pop	{r4, r5, pc}
 234              	.LVL23:
 235              	.L17:
 236 004a 00BF     		.align	2
 237              	.L16:
 238 004c 18000000 		.word	.LC2
ARM GAS  C:\Users\degn\AppData\Local\Temp\ccQdAMAZ.s 			page 7


 239 0050 28000000 		.word	.LC3
 240              		.cfi_endproc
 241              	.LFE67:
 242              		.size	writeLCD, .-writeLCD
 243              		.section	.text.adcToDegrees,"ax",%progbits
 244              		.align	2
 245              		.global	adcToDegrees
 246              		.thumb
 247              		.thumb_func
 248              		.type	adcToDegrees, %function
 249              	adcToDegrees:
 250              	.LFB69:
  59:interface.c   **** 
 251              		.loc 1 59 0
 252              		.cfi_startproc
 253              		@ args = 0, pretend = 0, frame = 0
 254              		@ frame_needed = 0, uses_anonymous_args = 0
 255              		@ link register save eliminated.
 256              	.LVL24:
  62:interface.c   ****     {
 257              		.loc 1 62 0
 258 0000 C728     		cmp	r0, #199
 259 0002 04DD     		ble	.L20
  66:interface.c   ****     {
 260              		.loc 1 66 0
 261 0004 40F63C73 		movw	r3, #3900
 262 0008 9842     		cmp	r0, r3
 263 000a 02DC     		bgt	.L21
 264 000c 03E0     		b	.L19
 265              	.L20:
  64:interface.c   ****     }
 266              		.loc 1 64 0
 267 000e C820     		movs	r0, #200
 268              	.LVL25:
 269 0010 01E0     		b	.L19
 270              	.LVL26:
 271              	.L21:
  68:interface.c   ****     }
 272              		.loc 1 68 0
 273 0012 40F63C70 		movw	r0, #3900
 274              	.LVL27:
 275              	.L19:
  72:interface.c   **** 
 276              		.loc 1 72 0
 277 0016 C838     		subs	r0, r0, #200
 278              	.LVL28:
 279 0018 4623     		movs	r3, #70
 280 001a 03FB00F3 		mul	r3, r3, r0
 281 001e 0448     		ldr	r0, .L22
 282              	.LVL29:
 283 0020 80FB0320 		smull	r2, r0, r0, r3
 284 0024 1844     		add	r0, r0, r3
 285 0026 DB17     		asrs	r3, r3, #31
 286 0028 C3EBE020 		rsb	r0, r3, r0, asr #11
 287              	.LVL30:
  75:interface.c   **** 
 288              		.loc 1 75 0
ARM GAS  C:\Users\degn\AppData\Local\Temp\ccQdAMAZ.s 			page 8


 289 002c 2338     		subs	r0, r0, #35
 290              	.LVL31:
 291 002e 7047     		bx	lr
 292              	.L23:
 293              		.align	2
 294              	.L22:
 295 0030 C70FB38D 		.word	-1917644857
 296              		.cfi_endproc
 297              	.LFE69:
 298              		.size	adcToDegrees, .-adcToDegrees
 299              		.section	.text.interfaceSetpoint,"ax",%progbits
 300              		.align	2
 301              		.global	interfaceSetpoint
 302              		.thumb
 303              		.thumb_func
 304              		.type	interfaceSetpoint, %function
 305              	interfaceSetpoint:
 306              	.LFB68:
  53:interface.c   ****     //return adcToDegrees( FIRMovingAverage( ADC_SAR_1_GetResult16() ) );
 307              		.loc 1 53 0
 308              		.cfi_startproc
 309              		@ args = 0, pretend = 0, frame = 0
 310              		@ frame_needed = 0, uses_anonymous_args = 0
 311 0000 08B5     		push	{r3, lr}
 312              		.cfi_def_cfa_offset 8
 313              		.cfi_offset 3, -8
 314              		.cfi_offset 14, -4
  55:interface.c   **** }
 315              		.loc 1 55 0
 316 0002 FFF7FEFF 		bl	ADC_SAR_1_GetResult16
 317              	.LVL32:
 318 0006 FFF7FEFF 		bl	adcToDegrees
 319              	.LVL33:
  56:interface.c   **** 
 320              		.loc 1 56 0
 321 000a 08BD     		pop	{r3, pc}
 322              		.cfi_endproc
 323              	.LFE68:
 324              		.size	interfaceSetpoint, .-interfaceSetpoint
 325              		.global	block
 326              		.comm	LCDbuffer,20,4
 327              		.section	.rodata.str1.4,"aMS",%progbits,1
 328              		.align	2
 329              	.LC0:
 330 0000 53746172 		.ascii	"Starting\000"
 330      74696E67 
 330      00
 331 0009 000000   		.space	3
 332              	.LC1:
 333 000c 44726F6E 		.ascii	"Dron-A Lisa\000"
 333      2D41204C 
 333      69736100 
 334              	.LC2:
 335 0018 53657470 		.ascii	"Setpoint: %i\000"
 335      6F696E74 
 335      3A202569 
 335      00
ARM GAS  C:\Users\degn\AppData\Local\Temp\ccQdAMAZ.s 			page 9


 336 0025 000000   		.space	3
 337              	.LC3:
 338 0028 53656E73 		.ascii	"Sensor: %.2f\000"
 338      6F723A20 
 338      252E3266 
 338      00
 339              		.bss
 340              		.align	2
 341              		.set	.LANCHOR0,. + 0
 342              		.type	block, %object
 343              		.size	block, 4
 344              	block:
 345 0000 00000000 		.space	4
 346              		.text
 347              	.Letext0:
 348              		.file 2 "c:\\program files (x86)\\cypress\\psoc creator\\4.4\\psoc creator\\import\\gnu\\arm\\5.4.
 349              		.file 3 "c:\\program files (x86)\\cypress\\psoc creator\\4.4\\psoc creator\\import\\gnu\\arm\\5.4.
 350              		.file 4 "Generated_Source\\PSoC5/core_cm3.h"
 351              		.file 5 "Generated_Source\\PSoC5/LCD.h"
 352              		.file 6 "Generated_Source\\PSoC5/ADC_SAR_1.h"
 353              		.file 7 "Generated_Source\\PSoC5/isr_toggle.h"
 354              		.file 8 "Generated_Source\\PSoC5/isr_motorSwitch_On.h"
 355              		.file 9 "Generated_Source\\PSoC5/isr_motorSwitch_Off.h"
 356              		.file 10 "c:\\program files (x86)\\cypress\\psoc creator\\4.4\\psoc creator\\import\\gnu\\arm\\5.4