ARM GAS  C:\Users\Jacob\AppData\Local\Temp\ccqit8Oa.s 			page 1


   1              		.syntax unified
   2              		.cpu cortex-m3
   3              		.fpu softvfp
   4              		.eabi_attribute 20, 1
   5              		.eabi_attribute 21, 1
   6              		.eabi_attribute 23, 3
   7              		.eabi_attribute 24, 1
   8              		.eabi_attribute 25, 1
   9              		.eabi_attribute 26, 1
  10              		.eabi_attribute 30, 1
  11              		.eabi_attribute 34, 1
  12              		.eabi_attribute 18, 4
  13              		.thumb
  14              		.syntax unified
  15              		.file	"main.c"
  16              		.text
  17              	.Ltext0:
  18              		.cfi_sections	.debug_frame
  19              		.global	__aeabi_d2f
  20              		.global	__aeabi_fcmplt
  21              		.global	__aeabi_fdiv
  22              		.global	__aeabi_fsub
  23              		.global	__aeabi_f2iz
  24              		.global	__aeabi_fcmpgt
  25              		.global	__aeabi_fadd
  26              		.section	.text.PID_HANDLER,"ax",%progbits
  27              		.align	2
  28              		.global	PID_HANDLER
  29              		.thumb
  30              		.thumb_func
  31              		.type	PID_HANDLER, %function
  32              	PID_HANDLER:
  33              	.LFB67:
  34              		.file 1 "main.c"
   1:main.c        **** #include "project.h"
   2:main.c        **** #include "motor.h"
   3:main.c        **** #include "PIDcontroller.h"
   4:main.c        **** #include "tfTest.h"
   5:main.c        **** #include "sensor.h"
   6:main.c        **** #include <stdio.h>
   7:main.c        **** 
   8:main.c        **** CY_ISR_PROTO(PID_HANDLER);
   9:main.c        **** 
  10:main.c        **** 
  11:main.c        **** char outputBuffer[256];
  12:main.c        **** extern float kp_;
  13:main.c        **** extern float ki_;
  14:main.c        **** extern float kd_;
  15:main.c        **** extern float iMin_;
  16:main.c        **** extern float iMax_;
  17:main.c        **** extern float dt_;
  18:main.c        **** 
  19:main.c        **** float output = 0;
  20:main.c        **** float measurement = 0;
  21:main.c        **** float proportional = 0;
  22:main.c        **** float integral = 0;
  23:main.c        **** float derivative = 0;
ARM GAS  C:\Users\Jacob\AppData\Local\Temp\ccqit8Oa.s 			page 2


  24:main.c        **** float error = 0;
  25:main.c        **** float setpoint = 0;
  26:main.c        **** 
  27:main.c        **** extern int newCountFlag;
  28:main.c        **** extern long count;
  29:main.c        **** double angle;
  30:main.c        **** int step = 0;
  31:main.c        **** 
  32:main.c        **** // Handle received byte and perform corresponding action
  33:main.c        **** void handleByteReceived(uint8_t byteReceived)
  34:main.c        **** {
  35:main.c        ****     switch (byteReceived)
  36:main.c        ****     {
  37:main.c        ****     case '1':
  38:main.c        ****         {
  39:main.c        ****             step = 1;
  40:main.c        ****             setspeed(1, 270);
  41:main.c        ****         }
  42:main.c        ****     break;
  43:main.c        ****     default:
  44:main.c        ****         // Do nothing for unrecognized commands
  45:main.c        ****         break;
  46:main.c        ****     }
  47:main.c        **** }
  48:main.c        **** 
  49:main.c        **** CY_ISR(ISR_UART_rx_handler)
  50:main.c        **** {
  51:main.c        ****     uint8_t bytesToRead = UART_1_GetRxBufferSize(); // Get the number of bytes to read
  52:main.c        ****     while (bytesToRead > 0)
  53:main.c        ****     {
  54:main.c        ****         uint8_t byteReceived = UART_1_ReadRxData(); // Read a byte from UART
  55:main.c        ****         UART_1_WriteTxData(byteReceived);           // Echo back the received byte
  56:main.c        **** 
  57:main.c        ****         handleByteReceived(byteReceived); // Handle the received byte
  58:main.c        **** 
  59:main.c        ****         bytesToRead--; // Decrement the byte counter
  60:main.c        ****     }
  61:main.c        **** }
  62:main.c        **** 
  63:main.c        **** 
  64:main.c        **** 
  65:main.c        **** int main(void)
  66:main.c        **** {
  67:main.c        ****     CyGlobalIntEnable; /* Enable global interrupts. */
  68:main.c        **** 
  69:main.c        ****     UART_1_Start();
  70:main.c        ****     isr_uart_rx_StartEx(ISR_UART_rx_handler);
  71:main.c        ****     
  72:main.c        ****     Motor_Init();
  73:main.c        ****     CyDelay(5000);
  74:main.c        ****     setspeed(1,200);
  75:main.c        ****     setspeed(2,175);
  76:main.c        ****     CyDelay(2000);
  77:main.c        ****     
  78:main.c        ****     isr_pid_StartEx(PID_HANDLER);
  79:main.c        ****     
  80:main.c        ****     
ARM GAS  C:\Users\Jacob\AppData\Local\Temp\ccqit8Oa.s 			page 3


  81:main.c        ****     //sensor
  82:main.c        ****     //char buff[256];
  83:main.c        ****     initSensor();
  84:main.c        ****     UART_1_PutString("started!");
  85:main.c        ****     for(;;)
  86:main.c        ****     {
  87:main.c        ****         startBurst();
  88:main.c        ****         CyDelay(3);
  89:main.c        ****         stopBurst();
  90:main.c        ****         CyDelay(3);
  91:main.c        ****         if (newCountFlag == 1)
  92:main.c        ****         {
  93:main.c        ****             newCountFlag = 0;
  94:main.c        ****             
  95:main.c        ****             count = IIRFilter(count);
  96:main.c        ****             angle = calcAngle(count);
  97:main.c        ****             
  98:main.c        ****             //sprintf(buff, "%i %.2f  \r\n", step,  angle);
  99:main.c        ****             //UART_1_PutString(buff);
 100:main.c        ****             sprintf(outputBuffer, "%.2f %.2f \r\n", output,angle);
 101:main.c        ****             UART_1_PutString(outputBuffer);
 102:main.c        ****             startCounter();
 103:main.c        ****         }
 104:main.c        ****         
 105:main.c        ****     }
 106:main.c        **** }
 107:main.c        ****  //float counter = 0;
 108:main.c        **** CY_ISR(PID_HANDLER)
 109:main.c        **** {
  35              		.loc 1 109 0
  36              		.cfi_startproc
  37              		@ args = 0, pretend = 0, frame = 0
  38              		@ frame_needed = 0, uses_anonymous_args = 0
  39 0000 30B5     		push	{r4, r5, lr}
  40              		.cfi_def_cfa_offset 12
  41              		.cfi_offset 4, -12
  42              		.cfi_offset 5, -8
  43              		.cfi_offset 14, -4
  44 0002 83B0     		sub	sp, sp, #12
  45              		.cfi_def_cfa_offset 24
 110:main.c        ****     
 111:main.c        ****     //float test = sinFunc(0.1,(counter++ * (1/333)));
 112:main.c        ****     //sprintf(outputBuffer, "%f \r\n", test);
 113:main.c        ****     //tfTest(test,200,170);
 114:main.c        ****     output = PIDUpdate(-10, angle, &proportional, &integral, &derivative);
  46              		.loc 1 114 0
  47 0004 244C     		ldr	r4, .L12
  48 0006 254B     		ldr	r3, .L12+4
  49 0008 D3E90001 		ldrd	r0, [r3]
  50 000c FFF7FEFF 		bl	__aeabi_d2f
  51              	.LVL0:
  52 0010 04F10803 		add	r3, r4, #8
  53 0014 0093     		str	r3, [sp]
  54 0016 2346     		mov	r3, r4
  55 0018 221D     		adds	r2, r4, #4
  56 001a 0146     		mov	r1, r0
  57 001c 2048     		ldr	r0, .L12+8
ARM GAS  C:\Users\Jacob\AppData\Local\Temp\ccqit8Oa.s 			page 4


  58 001e FFF7FEFF 		bl	PIDUpdate
  59              	.LVL1:
  60 0022 0546     		mov	r5, r0
  61 0024 E060     		str	r0, [r4, #12]	@ float
 115:main.c        ****     //to motor somehow
 116:main.c        ****     if(output<0)
  62              		.loc 1 116 0
  63 0026 0021     		movs	r1, #0
  64 0028 FFF7FEFF 		bl	__aeabi_fcmplt
  65              	.LVL2:
  66 002c 90B1     		cbz	r0, .L9
 117:main.c        ****     {
 118:main.c        ****         setspeed(1,200-(output/50));
  67              		.loc 1 118 0
  68 002e 1D49     		ldr	r1, .L12+12
  69 0030 2846     		mov	r0, r5
  70 0032 FFF7FEFF 		bl	__aeabi_fdiv
  71              	.LVL3:
  72 0036 0146     		mov	r1, r0
  73 0038 1B48     		ldr	r0, .L12+16
  74 003a FFF7FEFF 		bl	__aeabi_fsub
  75              	.LVL4:
  76 003e FFF7FEFF 		bl	__aeabi_f2iz
  77              	.LVL5:
  78 0042 0146     		mov	r1, r0
  79 0044 0120     		movs	r0, #1
  80 0046 FFF7FEFF 		bl	setspeed
  81              	.LVL6:
 119:main.c        ****         setspeed(2,178);
  82              		.loc 1 119 0
  83 004a B221     		movs	r1, #178
  84 004c 0220     		movs	r0, #2
  85 004e FFF7FEFF 		bl	setspeed
  86              	.LVL7:
  87 0052 1EE0     		b	.L1
  88              	.L9:
 120:main.c        ****     }
 121:main.c        ****     else if(output>0)
  89              		.loc 1 121 0
  90 0054 0021     		movs	r1, #0
  91 0056 2846     		mov	r0, r5
  92 0058 FFF7FEFF 		bl	__aeabi_fcmpgt
  93              	.LVL8:
  94 005c 88B1     		cbz	r0, .L10
 122:main.c        ****     {
 123:main.c        ****         setspeed(2,178+(output/50));
  95              		.loc 1 123 0
  96 005e 1149     		ldr	r1, .L12+12
  97 0060 2846     		mov	r0, r5
  98 0062 FFF7FEFF 		bl	__aeabi_fdiv
  99              	.LVL9:
 100 0066 1149     		ldr	r1, .L12+20
 101 0068 FFF7FEFF 		bl	__aeabi_fadd
 102              	.LVL10:
 103 006c FFF7FEFF 		bl	__aeabi_f2iz
 104              	.LVL11:
 105 0070 0146     		mov	r1, r0
ARM GAS  C:\Users\Jacob\AppData\Local\Temp\ccqit8Oa.s 			page 5


 106 0072 0220     		movs	r0, #2
 107 0074 FFF7FEFF 		bl	setspeed
 108              	.LVL12:
 124:main.c        ****         setspeed(1,200);
 109              		.loc 1 124 0
 110 0078 C821     		movs	r1, #200
 111 007a 0120     		movs	r0, #1
 112 007c FFF7FEFF 		bl	setspeed
 113              	.LVL13:
 114 0080 07E0     		b	.L1
 115              	.L10:
 125:main.c        ****     }
 126:main.c        ****     else
 127:main.c        ****     {
 128:main.c        ****         setspeed(1,200);
 116              		.loc 1 128 0
 117 0082 C821     		movs	r1, #200
 118 0084 0120     		movs	r0, #1
 119 0086 FFF7FEFF 		bl	setspeed
 120              	.LVL14:
 129:main.c        ****         setspeed(2,178);
 121              		.loc 1 129 0
 122 008a B221     		movs	r1, #178
 123 008c 0220     		movs	r0, #2
 124 008e FFF7FEFF 		bl	setspeed
 125              	.LVL15:
 126              	.L1:
 130:main.c        ****     }
 131:main.c        ****     
 132:main.c        **** }...
 127              		.loc 1 132 0
 128 0092 03B0     		add	sp, sp, #12
 129              		.cfi_def_cfa_offset 12
 130              		@ sp needed
 131 0094 30BD     		pop	{r4, r5, pc}
 132              	.L13:
 133 0096 00BF     		.align	2
 134              	.L12:
 135 0098 00000000 		.word	.LANCHOR0
 136 009c 00000000 		.word	angle
 137 00a0 000020C1 		.word	-1054867456
 138 00a4 00004842 		.word	1112014848
 139 00a8 00004843 		.word	1128792064
 140 00ac 00003243 		.word	1127350272
 141              		.cfi_endproc
 142              	.LFE67:
 143              		.size	PID_HANDLER, .-PID_HANDLER
 144              		.section	.text.handleByteReceived,"ax",%progbits
 145              		.align	2
 146              		.global	handleByteReceived
 147              		.thumb
 148              		.thumb_func
 149              		.type	handleByteReceived, %function
 150              	handleByteReceived:
 151              	.LFB64:
  34:main.c        **** {
 152              		.loc 1 34 0
ARM GAS  C:\Users\Jacob\AppData\Local\Temp\ccqit8Oa.s 			page 6


 153              		.cfi_startproc
 154              		@ args = 0, pretend = 0, frame = 0
 155              		@ frame_needed = 0, uses_anonymous_args = 0
 156              	.LVL16:
  35:main.c        ****     switch (byteReceived)
 157              		.loc 1 35 0
 158 0000 3128     		cmp	r0, #49
 159 0002 08D1     		bne	.L18
  34:main.c        **** {
 160              		.loc 1 34 0
 161 0004 08B5     		push	{r3, lr}
 162              		.cfi_def_cfa_offset 8
 163              		.cfi_offset 3, -8
 164              		.cfi_offset 14, -4
  39:main.c        ****             step = 1;
 165              		.loc 1 39 0
 166 0006 0120     		movs	r0, #1
 167              	.LVL17:
 168 0008 034B     		ldr	r3, .L19
 169 000a 1861     		str	r0, [r3, #16]
  40:main.c        ****             setspeed(1, 270);
 170              		.loc 1 40 0
 171 000c 4FF48771 		mov	r1, #270
 172 0010 FFF7FEFF 		bl	setspeed
 173              	.LVL18:
 174 0014 08BD     		pop	{r3, pc}
 175              	.LVL19:
 176              	.L18:
 177              		.cfi_def_cfa_offset 0
 178              		.cfi_restore 3
 179              		.cfi_restore 14
 180 0016 7047     		bx	lr
 181              	.L20:
 182              		.align	2
 183              	.L19:
 184 0018 00000000 		.word	.LANCHOR0
 185              		.cfi_endproc
 186              	.LFE64:
 187              		.size	handleByteReceived, .-handleByteReceived
 188              		.section	.text.ISR_UART_rx_handler,"ax",%progbits
 189              		.align	2
 190              		.global	ISR_UART_rx_handler
 191              		.thumb
 192              		.thumb_func
 193              		.type	ISR_UART_rx_handler, %function
 194              	ISR_UART_rx_handler:
 195              	.LFB65:
  50:main.c        **** {
 196              		.loc 1 50 0
 197              		.cfi_startproc
 198              		@ args = 0, pretend = 0, frame = 0
 199              		@ frame_needed = 0, uses_anonymous_args = 0
 200 0000 38B5     		push	{r3, r4, r5, lr}
 201              		.cfi_def_cfa_offset 16
 202              		.cfi_offset 3, -16
 203              		.cfi_offset 4, -12
 204              		.cfi_offset 5, -8
ARM GAS  C:\Users\Jacob\AppData\Local\Temp\ccqit8Oa.s 			page 7


 205              		.cfi_offset 14, -4
  51:main.c        ****     uint8_t bytesToRead = UART_1_GetRxBufferSize(); // Get the number of bytes to read
 206              		.loc 1 51 0
 207 0002 FFF7FEFF 		bl	UART_1_GetRxBufferSize
 208              	.LVL20:
 209 0006 0446     		mov	r4, r0
 210              	.LVL21:
  52:main.c        ****     while (bytesToRead > 0)
 211              		.loc 1 52 0
 212 0008 09E0     		b	.L22
 213              	.L23:
 214              	.LBB2:
  54:main.c        ****         uint8_t byteReceived = UART_1_ReadRxData(); // Read a byte from UART
 215              		.loc 1 54 0
 216 000a FFF7FEFF 		bl	UART_1_ReadRxData
 217              	.LVL22:
 218 000e 0546     		mov	r5, r0
 219              	.LVL23:
  55:main.c        ****         UART_1_WriteTxData(byteReceived);           // Echo back the received byte
 220              		.loc 1 55 0
 221 0010 FFF7FEFF 		bl	UART_1_WriteTxData
 222              	.LVL24:
  57:main.c        ****         handleByteReceived(byteReceived); // Handle the received byte
 223              		.loc 1 57 0
 224 0014 2846     		mov	r0, r5
 225 0016 FFF7FEFF 		bl	handleByteReceived
 226              	.LVL25:
  59:main.c        ****         bytesToRead--; // Decrement the byte counter
 227              		.loc 1 59 0
 228 001a 013C     		subs	r4, r4, #1
 229              	.LVL26:
 230 001c E4B2     		uxtb	r4, r4
 231              	.LVL27:
 232              	.L22:
 233              	.LBE2:
  52:main.c        ****     while (bytesToRead > 0)
 234              		.loc 1 52 0
 235 001e 002C     		cmp	r4, #0
 236 0020 F3D1     		bne	.L23
  61:main.c        **** }
 237              		.loc 1 61 0
 238 0022 38BD     		pop	{r3, r4, r5, pc}
 239              		.cfi_endproc
 240              	.LFE65:
 241              		.size	ISR_UART_rx_handler, .-ISR_UART_rx_handler
 242              		.global	__aeabi_i2f
 243              		.global	__aeabi_f2d
 244              		.section	.text.main,"ax",%progbits
 245              		.align	2
 246              		.global	main
 247              		.thumb
 248              		.thumb_func
 249              		.type	main, %function
 250              	main:
 251              	.LFB66:
  66:main.c        **** {
 252              		.loc 1 66 0
ARM GAS  C:\Users\Jacob\AppData\Local\Temp\ccqit8Oa.s 			page 8


 253              		.cfi_startproc
 254              		@ Volatile: function does not return.
 255              		@ args = 0, pretend = 0, frame = 0
 256              		@ frame_needed = 0, uses_anonymous_args = 0
 257 0000 80B5     		push	{r7, lr}
 258              		.cfi_def_cfa_offset 8
 259              		.cfi_offset 7, -8
 260              		.cfi_offset 14, -4
 261 0002 82B0     		sub	sp, sp, #8
 262              		.cfi_def_cfa_offset 16
  67:main.c        ****     CyGlobalIntEnable; /* Enable global interrupts. */
 263              		.loc 1 67 0
 264              		.syntax unified
 265              	@ 67 "main.c" 1
 266 0004 62B6     		CPSIE   i
 267              	@ 0 "" 2
  69:main.c        ****     UART_1_Start();
 268              		.loc 1 69 0
 269              		.thumb
 270              		.syntax unified
 271 0006 FFF7FEFF 		bl	UART_1_Start
 272              	.LVL28:
  70:main.c        ****     isr_uart_rx_StartEx(ISR_UART_rx_handler);
 273              		.loc 1 70 0
 274 000a 2848     		ldr	r0, .L29
 275 000c FFF7FEFF 		bl	isr_uart_rx_StartEx
 276              	.LVL29:
  72:main.c        ****     Motor_Init();
 277              		.loc 1 72 0
 278 0010 FFF7FEFF 		bl	Motor_Init
 279              	.LVL30:
  73:main.c        ****     CyDelay(5000);
 280              		.loc 1 73 0
 281 0014 41F28830 		movw	r0, #5000
 282 0018 FFF7FEFF 		bl	CyDelay
 283              	.LVL31:
  74:main.c        ****     setspeed(1,200);
 284              		.loc 1 74 0
 285 001c C821     		movs	r1, #200
 286 001e 0120     		movs	r0, #1
 287 0020 FFF7FEFF 		bl	setspeed
 288              	.LVL32:
  75:main.c        ****     setspeed(2,175);
 289              		.loc 1 75 0
 290 0024 AF21     		movs	r1, #175
 291 0026 0220     		movs	r0, #2
 292 0028 FFF7FEFF 		bl	setspeed
 293              	.LVL33:
  76:main.c        ****     CyDelay(2000);
 294              		.loc 1 76 0
 295 002c 4FF4FA60 		mov	r0, #2000
 296 0030 FFF7FEFF 		bl	CyDelay
 297              	.LVL34:
  78:main.c        ****     isr_pid_StartEx(PID_HANDLER);
 298              		.loc 1 78 0
 299 0034 1E48     		ldr	r0, .L29+4
 300 0036 FFF7FEFF 		bl	isr_pid_StartEx
ARM GAS  C:\Users\Jacob\AppData\Local\Temp\ccqit8Oa.s 			page 9


 301              	.LVL35:
  83:main.c        ****     initSensor();
 302              		.loc 1 83 0
 303 003a FFF7FEFF 		bl	initSensor
 304              	.LVL36:
  84:main.c        ****     UART_1_PutString("started!");
 305              		.loc 1 84 0
 306 003e 1D48     		ldr	r0, .L29+8
 307 0040 FFF7FEFF 		bl	UART_1_PutString
 308              	.LVL37:
 309              	.L26:
  87:main.c        ****         startBurst();
 310              		.loc 1 87 0
 311 0044 FFF7FEFF 		bl	startBurst
 312              	.LVL38:
  88:main.c        ****         CyDelay(3);
 313              		.loc 1 88 0
 314 0048 0320     		movs	r0, #3
 315 004a FFF7FEFF 		bl	CyDelay
 316              	.LVL39:
  89:main.c        ****         stopBurst();
 317              		.loc 1 89 0
 318 004e FFF7FEFF 		bl	stopBurst
 319              	.LVL40:
  90:main.c        ****         CyDelay(3);
 320              		.loc 1 90 0
 321 0052 0320     		movs	r0, #3
 322 0054 FFF7FEFF 		bl	CyDelay
 323              	.LVL41:
  91:main.c        ****         if (newCountFlag == 1)
 324              		.loc 1 91 0
 325 0058 174B     		ldr	r3, .L29+12
 326 005a 1B68     		ldr	r3, [r3]
 327 005c 012B     		cmp	r3, #1
 328 005e F1D1     		bne	.L26
  93:main.c        ****             newCountFlag = 0;
 329              		.loc 1 93 0
 330 0060 0022     		movs	r2, #0
 331 0062 154B     		ldr	r3, .L29+12
 332 0064 1A60     		str	r2, [r3]
  95:main.c        ****             count = IIRFilter(count);
 333              		.loc 1 95 0
 334 0066 154C     		ldr	r4, .L29+16
 335 0068 2068     		ldr	r0, [r4]
 336 006a FFF7FEFF 		bl	__aeabi_i2f
 337              	.LVL42:
 338 006e FFF7FEFF 		bl	IIRFilter
 339              	.LVL43:
 340 0072 FFF7FEFF 		bl	__aeabi_f2iz
 341              	.LVL44:
 342 0076 2060     		str	r0, [r4]
  96:main.c        ****             angle = calcAngle(count);
 343              		.loc 1 96 0
 344 0078 FFF7FEFF 		bl	calcAngle
 345              	.LVL45:
 346 007c 0646     		mov	r6, r0
 347 007e 0F46     		mov	r7, r1
ARM GAS  C:\Users\Jacob\AppData\Local\Temp\ccqit8Oa.s 			page 10


 348 0080 0F4B     		ldr	r3, .L29+20
 349 0082 C3E90067 		strd	r6, [r3]
 100:main.c        ****             sprintf(outputBuffer, "%.2f %.2f \r\n", output,angle);
 350              		.loc 1 100 0
 351 0086 0F4B     		ldr	r3, .L29+24
 352 0088 D868     		ldr	r0, [r3, #12]	@ float
 353 008a FFF7FEFF 		bl	__aeabi_f2d
 354              	.LVL46:
 355 008e 0E4C     		ldr	r4, .L29+28
 356 0090 CDE90067 		strd	r6, [sp]
 357 0094 0246     		mov	r2, r0
 358 0096 0B46     		mov	r3, r1
 359 0098 0C49     		ldr	r1, .L29+32
 360 009a 2046     		mov	r0, r4
 361 009c FFF7FEFF 		bl	sprintf
 362              	.LVL47:
 101:main.c        ****             UART_1_PutString(outputBuffer);
 363              		.loc 1 101 0
 364 00a0 2046     		mov	r0, r4
 365 00a2 FFF7FEFF 		bl	UART_1_PutString
 366              	.LVL48:
 102:main.c        ****             startCounter();
 367              		.loc 1 102 0
 368 00a6 FFF7FEFF 		bl	startCounter
 369              	.LVL49:
 370 00aa CBE7     		b	.L26
 371              	.L30:
 372              		.align	2
 373              	.L29:
 374 00ac 00000000 		.word	ISR_UART_rx_handler
 375 00b0 00000000 		.word	PID_HANDLER
 376 00b4 00000000 		.word	.LC0
 377 00b8 00000000 		.word	newCountFlag
 378 00bc 00000000 		.word	count
 379 00c0 00000000 		.word	angle
 380 00c4 00000000 		.word	.LANCHOR0
 381 00c8 00000000 		.word	outputBuffer
 382 00cc 0C000000 		.word	.LC1
 383              		.cfi_endproc
 384              	.LFE66:
 385              		.size	main, .-main
 386              		.global	step
 387              		.comm	angle,8,8
 388              		.global	setpoint
 389              		.global	error
 390              		.global	derivative
 391              		.global	integral
 392              		.global	proportional
 393              		.global	measurement
 394              		.global	output
 395              		.comm	outputBuffer,256,4
 396              		.section	.rodata.str1.4,"aMS",%progbits,1
 397              		.align	2
 398              	.LC0:
 399 0000 73746172 		.ascii	"started!\000"
 399      74656421 
 399      00
ARM GAS  C:\Users\Jacob\AppData\Local\Temp\ccqit8Oa.s 			page 11


 400 0009 000000   		.space	3
 401              	.LC1:
 402 000c 252E3266 		.ascii	"%.2f %.2f \015\012\000"
 402      20252E32 
 402      66200D0A 
 402      00
 403              		.bss
 404              		.align	2
 405              		.set	.LANCHOR0,. + 0
 406              		.type	integral, %object
 407              		.size	integral, 4
 408              	integral:
 409 0000 00000000 		.space	4
 410              		.type	proportional, %object
 411              		.size	proportional, 4
 412              	proportional:
 413 0004 00000000 		.space	4
 414              		.type	derivative, %object
 415              		.size	derivative, 4
 416              	derivative:
 417 0008 00000000 		.space	4
 418              		.type	output, %object
 419              		.size	output, 4
 420              	output:
 421 000c 00000000 		.space	4
 422              		.type	step, %object
 423              		.size	step, 4
 424              	step:
 425 0010 00000000 		.space	4
 426              		.type	setpoint, %object
 427              		.size	setpoint, 4
 428              	setpoint:
 429 0014 00000000 		.space	4
 430              		.type	error, %object
 431              		.size	error, 4
 432              	error:
 433 0018 00000000 		.space	4
 434              		.type	measurement, %object
 435              		.size	measurement, 4
 436              	measurement:
 437 001c 00000000 		.space	4
 438              		.text
 439              	.Letext0:
 440              		.file 2 "c:\\program files (x86)\\cypress\\psoc creator\\4.4\\psoc creator\\import\\gnu\\arm\\5.4.
 441              		.file 3 "c:\\program files (x86)\\cypress\\psoc creator\\4.4\\psoc creator\\import\\gnu\\arm\\5.4.
 442              		.file 4 "Generated_Source\\PSoC5/core_cm3.h"
 443              		.file 5 "PIDcontroller.h"
 444              		.file 6 "motor.h"
 445              		.file 7 "Generated_Source\\PSoC5/UART_1.h"
 446              		.file 8 "Generated_Source\\PSoC5/isr_uart_rx.h"
 447              		.file 9 "Generated_Source\\PSoC5/CyLib.h"
 448              		.file 10 "Generated_Source\\PSoC5/isr_pid.h"
 449              		.file 11 "sensor.h"
 450              		.file 12 "c:\\program files (x86)\\cypress\\psoc creator\\4.4\\psoc creator\\import\\gnu\\arm\\5.4