ARM GAS  C:\Users\Jacob\AppData\Local\Temp\ccKbCSx6.s 			page 1


   1              		.syntax unified
   2              		.cpu cortex-m3
   3              		.fpu softvfp
   4              		.eabi_attribute 20, 1
   5              		.eabi_attribute 21, 1
   6              		.eabi_attribute 23, 3
   7              		.eabi_attribute 24, 1
   8              		.eabi_attribute 25, 1
   9              		.eabi_attribute 26, 1
  10              		.eabi_attribute 30, 1
  11              		.eabi_attribute 34, 1
  12              		.eabi_attribute 18, 4
  13              		.thumb
  14              		.syntax unified
  15              		.file	"motor.c"
  16              		.text
  17              	.Ltext0:
  18              		.cfi_sections	.debug_frame
  19              		.section	.text.stop,"ax",%progbits
  20              		.align	2
  21              		.global	stop
  22              		.thumb
  23              		.thumb_func
  24              		.type	stop, %function
  25              	stop:
  26              	.LFB64:
  27              		.file 1 "motor.c"
   1:motor.c       **** #include "motor.h"
   2:motor.c       **** #include "project.h"
   3:motor.c       **** 
   4:motor.c       **** // Initialize Motor to 50Hz
   5:motor.c       **** void Motor_Init()
   6:motor.c       **** {
   7:motor.c       ****     Clock_1_Start(); // Start the clock
   8:motor.c       ****     PWM_1_Start();   // Start the PWM
   9:motor.c       ****     setspeed(1,0);
  10:motor.c       ****     setspeed(0,0);
  11:motor.c       **** }
  12:motor.c       **** 
  13:motor.c       **** 
  14:motor.c       **** 
  15:motor.c       **** // Stop both motors
  16:motor.c       **** void stop()
  17:motor.c       **** {
  28              		.loc 1 17 0
  29              		.cfi_startproc
  30              		@ args = 0, pretend = 0, frame = 0
  31              		@ frame_needed = 0, uses_anonymous_args = 0
  32 0000 08B5     		push	{r3, lr}
  33              		.cfi_def_cfa_offset 8
  34              		.cfi_offset 3, -8
  35              		.cfi_offset 14, -4
  18:motor.c       ****     PWM_1_WriteCompare1(1000); // Reset motor 1 speed
  36              		.loc 1 18 0
  37 0002 4FF47A70 		mov	r0, #1000
  38 0006 FFF7FEFF 		bl	PWM_1_WriteCompare1
  39              	.LVL0:
ARM GAS  C:\Users\Jacob\AppData\Local\Temp\ccKbCSx6.s 			page 2


  19:motor.c       ****     PWM_1_WriteCompare2(1000); // Reset motor 0 speed
  40              		.loc 1 19 0
  41 000a 4FF47A70 		mov	r0, #1000
  42 000e FFF7FEFF 		bl	PWM_1_WriteCompare2
  43              	.LVL1:
  44 0012 08BD     		pop	{r3, pc}
  45              		.cfi_endproc
  46              	.LFE64:
  47              		.size	stop, .-stop
  48              		.section	.text.setspeed,"ax",%progbits
  49              		.align	2
  50              		.global	setspeed
  51              		.thumb
  52              		.thumb_func
  53              		.type	setspeed, %function
  54              	setspeed:
  55              	.LFB65:
  20:motor.c       **** }
  21:motor.c       **** 
  22:motor.c       **** void setspeed(int Motor, int setpoint)
  23:motor.c       **** {
  56              		.loc 1 23 0
  57              		.cfi_startproc
  58              		@ args = 0, pretend = 0, frame = 0
  59              		@ frame_needed = 0, uses_anonymous_args = 0
  60              	.LVL2:
  61 0000 08B5     		push	{r3, lr}
  62              		.cfi_def_cfa_offset 8
  63              		.cfi_offset 3, -8
  64              		.cfi_offset 14, -4
  24:motor.c       ****     int setpoint_ = (setpoint < 0) ? 0 : (setpoint > 1000) ? 1000 : setpoint;
  65              		.loc 1 24 0
  66 0002 0029     		cmp	r1, #0
  67 0004 05DB     		blt	.L8
  68              		.loc 1 24 0 is_stmt 0 discriminator 1
  69 0006 B1F57A7F 		cmp	r1, #1000
  70 000a A8BF     		it	ge
  71 000c 4FF47A71 		movge	r1, #1000
  72              	.LVL3:
  73 0010 00E0     		b	.L4
  74              	.LVL4:
  75              	.L8:
  76              		.loc 1 24 0
  77 0012 0021     		movs	r1, #0
  78              	.LVL5:
  79              	.L4:
  25:motor.c       ****     if (0 == Motor)
  80              		.loc 1 25 0 is_stmt 1 discriminator 4
  81 0014 28B9     		cbnz	r0, .L5
  26:motor.c       ****     {
  27:motor.c       ****         PWM_1_WriteCompare1(setpoint_ + 1000);
  82              		.loc 1 27 0
  83 0016 01F57A70 		add	r0, r1, #1000
  84              	.LVL6:
  85 001a 80B2     		uxth	r0, r0
  86 001c FFF7FEFF 		bl	PWM_1_WriteCompare1
  87              	.LVL7:
ARM GAS  C:\Users\Jacob\AppData\Local\Temp\ccKbCSx6.s 			page 3


  88 0020 08BD     		pop	{r3, pc}
  89              	.LVL8:
  90              	.L5:
  28:motor.c       ****     }
  29:motor.c       ****     else if (1 == Motor)
  91              		.loc 1 29 0
  92 0022 0128     		cmp	r0, #1
  93 0024 05D1     		bne	.L7
  30:motor.c       ****     {
  31:motor.c       ****         PWM_1_WriteCompare2(setpoint_ + 1000);
  94              		.loc 1 31 0
  95 0026 01F57A70 		add	r0, r1, #1000
  96              	.LVL9:
  97 002a 80B2     		uxth	r0, r0
  98 002c FFF7FEFF 		bl	PWM_1_WriteCompare2
  99              	.LVL10:
 100 0030 08BD     		pop	{r3, pc}
 101              	.LVL11:
 102              	.L7:
  32:motor.c       ****     }
  33:motor.c       ****     else
  34:motor.c       ****     {
  35:motor.c       ****         UART_1_PutString("You have made a grave mistake\r\n");
 103              		.loc 1 35 0
 104 0032 0248     		ldr	r0, .L10
 105              	.LVL12:
 106 0034 FFF7FEFF 		bl	UART_1_PutString
 107              	.LVL13:
 108 0038 08BD     		pop	{r3, pc}
 109              	.L11:
 110 003a 00BF     		.align	2
 111              	.L10:
 112 003c 00000000 		.word	.LC0
 113              		.cfi_endproc
 114              	.LFE65:
 115              		.size	setspeed, .-setspeed
 116              		.section	.text.Motor_Init,"ax",%progbits
 117              		.align	2
 118              		.global	Motor_Init
 119              		.thumb
 120              		.thumb_func
 121              		.type	Motor_Init, %function
 122              	Motor_Init:
 123              	.LFB63:
   6:motor.c       ****     Clock_1_Start(); // Start the clock
 124              		.loc 1 6 0
 125              		.cfi_startproc
 126              		@ args = 0, pretend = 0, frame = 0
 127              		@ frame_needed = 0, uses_anonymous_args = 0
 128 0000 08B5     		push	{r3, lr}
 129              		.cfi_def_cfa_offset 8
 130              		.cfi_offset 3, -8
 131              		.cfi_offset 14, -4
   7:motor.c       ****     PWM_1_Start();   // Start the PWM
 132              		.loc 1 7 0
 133 0002 FFF7FEFF 		bl	Clock_1_Start
 134              	.LVL14:
ARM GAS  C:\Users\Jacob\AppData\Local\Temp\ccKbCSx6.s 			page 4


   8:motor.c       ****     setspeed(1,0);
 135              		.loc 1 8 0
 136 0006 FFF7FEFF 		bl	PWM_1_Start
 137              	.LVL15:
   9:motor.c       ****     setspeed(0,0);
 138              		.loc 1 9 0
 139 000a 0021     		movs	r1, #0
 140 000c 0120     		movs	r0, #1
 141 000e FFF7FEFF 		bl	setspeed
 142              	.LVL16:
  10:motor.c       **** }
 143              		.loc 1 10 0
 144 0012 0021     		movs	r1, #0
 145 0014 0846     		mov	r0, r1
 146 0016 FFF7FEFF 		bl	setspeed
 147              	.LVL17:
 148 001a 08BD     		pop	{r3, pc}
 149              		.cfi_endproc
 150              	.LFE63:
 151              		.size	Motor_Init, .-Motor_Init
 152              		.section	.rodata.str1.4,"aMS",%progbits,1
 153              		.align	2
 154              	.LC0:
 155 0000 596F7520 		.ascii	"You have made a grave mistake\015\012\000"
 155      68617665 
 155      206D6164 
 155      65206120 
 155      67726176 
 156              		.text
 157              	.Letext0:
 158              		.file 2 "c:\\program files (x86)\\cypress\\psoc creator\\4.4\\psoc creator\\import\\gnu\\arm\\5.4.
 159              		.file 3 "c:\\program files (x86)\\cypress\\psoc creator\\4.4\\psoc creator\\import\\gnu\\arm\\5.4.
 160              		.file 4 "Generated_Source\\PSoC5/PWM_1.h"
 161              		.file 5 "Generated_Source\\PSoC5/UART_1.h"
 162              		.file 6 "Generated_Source\\PSoC5/Clock_1.h"
 163              		.file 7 "Generated_Source\\PSoC5/core_cm3.h"