ARM GAS  C:\Users\degn\AppData\Local\Temp\cc3BfGso.s 			page 1


   1              		.syntax unified
   2              		.cpu cortex-m3
   3              		.fpu softvfp
   4              		.eabi_attribute 20, 1
   5              		.eabi_attribute 21, 1
   6              		.eabi_attribute 23, 3
   7              		.eabi_attribute 24, 1
   8              		.eabi_attribute 25, 1
   9              		.eabi_attribute 26, 1
  10              		.eabi_attribute 30, 1
  11              		.eabi_attribute 34, 1
  12              		.eabi_attribute 18, 4
  13              		.thumb
  14              		.syntax unified
  15              		.file	"PIDcontroller.c"
  16              		.text
  17              	.Ltext0:
  18              		.cfi_sections	.debug_frame
  19              		.global	__aeabi_fsub
  20              		.global	__aeabi_fmul
  21              		.global	__aeabi_fadd
  22              		.global	__aeabi_fcmplt
  23              		.global	__aeabi_fcmpgt
  24              		.global	__aeabi_fcmple
  25              		.global	__aeabi_fdiv
  26              		.section	.text.PIDUpdate,"ax",%progbits
  27              		.align	2
  28              		.global	PIDUpdate
  29              		.thumb
  30              		.thumb_func
  31              		.type	PIDUpdate, %function
  32              	PIDUpdate:
  33              	.LFB63:
  34              		.file 1 "PIDcontroller.c"
   1:PIDcontroller.c **** #include "PIDcontroller.h"
   2:PIDcontroller.c **** 
   3:PIDcontroller.c **** float kp_ = 100;
   4:PIDcontroller.c **** float ki_ = 20;
   5:PIDcontroller.c **** float kd_ = 392.59;
   6:PIDcontroller.c **** float iMin_ = -100;
   7:PIDcontroller.c **** float iMax_ = 100;
   8:PIDcontroller.c **** float dt_ = 20;
   9:PIDcontroller.c **** float setpoint_ = 0;
  10:PIDcontroller.c **** float previousError_ = 0;
  11:PIDcontroller.c **** float i_ = 0;
  12:PIDcontroller.c **** 
  13:PIDcontroller.c **** //The PIDUpdate function performs a single step of the PID control algorithm. 
  14:PIDcontroller.c **** //The parameters proportional, integral, and derivative are useful for analysis or debugging, 
  15:PIDcontroller.c **** //as they hold the values of the proportional, integral, and derivative terms respectively. 
  16:PIDcontroller.c **** //The physical systems current output is provided via the measurement parameter.
  17:PIDcontroller.c **** //The parameter setpoint sets the wanted setpoint for the PID system.
  18:PIDcontroller.c **** //PID controller’s output result is returned as a float.
  19:PIDcontroller.c **** float PIDUpdate(float setpoint, float measurement, float* proportional, float* integral, float* der
  20:PIDcontroller.c **** {
  35              		.loc 1 20 0
  36              		.cfi_startproc
  37              		@ args = 4, pretend = 0, frame = 0
ARM GAS  C:\Users\degn\AppData\Local\Temp\cc3BfGso.s 			page 2


  38              		@ frame_needed = 0, uses_anonymous_args = 0
  39              	.LVL0:
  40 0000 2DE9F047 		push	{r4, r5, r6, r7, r8, r9, r10, lr}
  41              		.cfi_def_cfa_offset 32
  42              		.cfi_offset 4, -32
  43              		.cfi_offset 5, -28
  44              		.cfi_offset 6, -24
  45              		.cfi_offset 7, -20
  46              		.cfi_offset 8, -16
  47              		.cfi_offset 9, -12
  48              		.cfi_offset 10, -8
  49              		.cfi_offset 14, -4
  50 0004 9146     		mov	r9, r2
  51 0006 9846     		mov	r8, r3
  52              	.LVL1:
  21:PIDcontroller.c ****     float output = 0;
  22:PIDcontroller.c ****     float p = 0;
  23:PIDcontroller.c ****     float i = 0;
  24:PIDcontroller.c ****     float d = 0;
  25:PIDcontroller.c ****     float currentError = 0;
  26:PIDcontroller.c **** 
  27:PIDcontroller.c ****     //Calculating the current error
  28:PIDcontroller.c ****     currentError = setpoint - measurement;
  53              		.loc 1 28 0
  54 0008 FFF7FEFF 		bl	__aeabi_fsub
  55              	.LVL2:
  56 000c 0546     		mov	r5, r0
  57              	.LVL3:
  29:PIDcontroller.c ****     
  30:PIDcontroller.c ****     //Calculating the proportional part
  31:PIDcontroller.c ****     p = kp_* currentError;
  58              		.loc 1 31 0
  59 000e 234C     		ldr	r4, .L8
  60 0010 2168     		ldr	r1, [r4]	@ float
  61 0012 FFF7FEFF 		bl	__aeabi_fmul
  62              	.LVL4:
  63 0016 0746     		mov	r7, r0
  64              	.LVL5:
  32:PIDcontroller.c ****     
  33:PIDcontroller.c ****     //Calculating the integral part
  34:PIDcontroller.c ****     i_ += ki_ * (currentError * dt_);
  65              		.loc 1 34 0
  66 0018 6668     		ldr	r6, [r4, #4]	@ float
  67 001a 3146     		mov	r1, r6
  68 001c 2846     		mov	r0, r5
  69              	.LVL6:
  70 001e FFF7FEFF 		bl	__aeabi_fmul
  71              	.LVL7:
  72 0022 A168     		ldr	r1, [r4, #8]	@ float
  73 0024 FFF7FEFF 		bl	__aeabi_fmul
  74              	.LVL8:
  75 0028 1D4B     		ldr	r3, .L8+4
  76 002a 1968     		ldr	r1, [r3]	@ float
  77 002c FFF7FEFF 		bl	__aeabi_fadd
  78              	.LVL9:
  79 0030 8246     		mov	r10, r0
  35:PIDcontroller.c ****     
ARM GAS  C:\Users\degn\AppData\Local\Temp\cc3BfGso.s 			page 3


  36:PIDcontroller.c ****     //Limits for the integral part
  37:PIDcontroller.c ****     i_ = (i_ < iMin_) ? iMin_ : (i_ > iMax_) ? iMax_ : i_;
  80              		.loc 1 37 0
  81 0032 E468     		ldr	r4, [r4, #12]	@ float
  82 0034 2146     		mov	r1, r4
  83 0036 FFF7FEFF 		bl	__aeabi_fcmplt
  84              	.LVL10:
  85 003a 38B9     		cbnz	r0, .L2
  86              		.loc 1 37 0 is_stmt 0 discriminator 2
  87 003c 174B     		ldr	r3, .L8
  88 003e 1C69     		ldr	r4, [r3, #16]	@ float
  89 0040 2146     		mov	r1, r4
  90 0042 5046     		mov	r0, r10
  91 0044 FFF7FEFF 		bl	__aeabi_fcmpgt
  92              	.LVL11:
  93 0048 00B9     		cbnz	r0, .L2
  94 004a 5446     		mov	r4, r10
  95              	.L2:
  96              		.loc 1 37 0 discriminator 8
  97 004c 144B     		ldr	r3, .L8+4
  98 004e 1C60     		str	r4, [r3]	@ float
  99              	.LVL12:
  38:PIDcontroller.c ****     
  39:PIDcontroller.c ****     //Assign to the i variable for possible debugging
  40:PIDcontroller.c ****     i = i_;
  41:PIDcontroller.c ****     
  42:PIDcontroller.c ****     //Calculating the derivative part, and avoiding division by 0
  43:PIDcontroller.c ****     d = (dt_ <= 0) ? 0: kd_ * (currentError - previousError_) / dt_;
 100              		.loc 1 43 0 is_stmt 1 discriminator 8
 101 0050 0021     		movs	r1, #0
 102 0052 3046     		mov	r0, r6
 103 0054 FFF7FEFF 		bl	__aeabi_fcmple
 104              	.LVL13:
 105 0058 68B9     		cbnz	r0, .L6
 106              		.loc 1 43 0 is_stmt 0 discriminator 2
 107 005a 114B     		ldr	r3, .L8+4
 108 005c 5968     		ldr	r1, [r3, #4]	@ float
 109 005e 2846     		mov	r0, r5
 110 0060 FFF7FEFF 		bl	__aeabi_fsub
 111              	.LVL14:
 112 0064 0D4B     		ldr	r3, .L8
 113 0066 5969     		ldr	r1, [r3, #20]	@ float
 114 0068 FFF7FEFF 		bl	__aeabi_fmul
 115              	.LVL15:
 116 006c 3146     		mov	r1, r6
 117 006e FFF7FEFF 		bl	__aeabi_fdiv
 118              	.LVL16:
 119 0072 0646     		mov	r6, r0
 120 0074 00E0     		b	.L4
 121              	.L6:
 122              		.loc 1 43 0
 123 0076 0026     		movs	r6, #0
 124              	.L4:
 125              	.LVL17:
  44:PIDcontroller.c ****     
  45:PIDcontroller.c ****     //Calculating the output
  46:PIDcontroller.c ****     output = p + i + d;
ARM GAS  C:\Users\degn\AppData\Local\Temp\cc3BfGso.s 			page 4


 126              		.loc 1 46 0 is_stmt 1 discriminator 4
 127 0078 3946     		mov	r1, r7
 128 007a 2046     		mov	r0, r4
 129 007c FFF7FEFF 		bl	__aeabi_fadd
 130              	.LVL18:
 131 0080 0146     		mov	r1, r0
 132 0082 3046     		mov	r0, r6
 133 0084 FFF7FEFF 		bl	__aeabi_fadd
 134              	.LVL19:
  47:PIDcontroller.c ****     
  48:PIDcontroller.c ****     //Saving the p, i and d for analysis or debugging
  49:PIDcontroller.c ****     *proportional = p;
 135              		.loc 1 49 0 discriminator 4
 136 0088 C9F80070 		str	r7, [r9]	@ float
  50:PIDcontroller.c ****     *integral = i;
 137              		.loc 1 50 0 discriminator 4
 138 008c C8F80040 		str	r4, [r8]	@ float
  51:PIDcontroller.c ****     *derivative = d;
 139              		.loc 1 51 0 discriminator 4
 140 0090 089B     		ldr	r3, [sp, #32]
 141 0092 1E60     		str	r6, [r3]	@ float
  52:PIDcontroller.c ****     
  53:PIDcontroller.c ****     //Saving the current error to later use
  54:PIDcontroller.c ****     previousError_ = currentError;
 142              		.loc 1 54 0 discriminator 4
 143 0094 024B     		ldr	r3, .L8+4
 144 0096 5D60     		str	r5, [r3, #4]	@ float
  55:PIDcontroller.c ****     
  56:PIDcontroller.c ****     return output;
  57:PIDcontroller.c **** }...
 145              		.loc 1 57 0 discriminator 4
 146 0098 BDE8F087 		pop	{r4, r5, r6, r7, r8, r9, r10, pc}
 147              	.LVL20:
 148              	.L9:
 149              		.align	2
 150              	.L8:
 151 009c 00000000 		.word	.LANCHOR0
 152 00a0 00000000 		.word	.LANCHOR1
 153              		.cfi_endproc
 154              	.LFE63:
 155              		.size	PIDUpdate, .-PIDUpdate
 156              		.global	i_
 157              		.global	previousError_
 158              		.global	setpoint_
 159              		.global	dt_
 160              		.global	iMax_
 161              		.global	iMin_
 162              		.global	kd_
 163              		.global	ki_
 164              		.global	kp_
 165              		.data
 166              		.align	2
 167              		.set	.LANCHOR0,. + 0
 168              		.type	kp_, %object
 169              		.size	kp_, 4
 170              	kp_:
 171 0000 0000C842 		.word	1120403456
ARM GAS  C:\Users\degn\AppData\Local\Temp\cc3BfGso.s 			page 5


 172              		.type	dt_, %object
 173              		.size	dt_, 4
 174              	dt_:
 175 0004 0000A041 		.word	1101004800
 176              		.type	ki_, %object
 177              		.size	ki_, 4
 178              	ki_:
 179 0008 0000A041 		.word	1101004800
 180              		.type	iMin_, %object
 181              		.size	iMin_, 4
 182              	iMin_:
 183 000c 0000C8C2 		.word	-1027080192
 184              		.type	iMax_, %object
 185              		.size	iMax_, 4
 186              	iMax_:
 187 0010 0000C842 		.word	1120403456
 188              		.type	kd_, %object
 189              		.size	kd_, 4
 190              	kd_:
 191 0014 854BC443 		.word	1136937861
 192              		.bss
 193              		.align	2
 194              		.set	.LANCHOR1,. + 0
 195              		.type	i_, %object
 196              		.size	i_, 4
 197              	i_:
 198 0000 00000000 		.space	4
 199              		.type	previousError_, %object
 200              		.size	previousError_, 4
 201              	previousError_:
 202 0004 00000000 		.space	4
 203              		.type	setpoint_, %object
 204              		.size	setpoint_, 4
 205              	setpoint_:
 206 0008 00000000 		.space	4
 207              		.text
 208              	.Letext0:
 209              		.file 2 "c:\\program files (x86)\\cypress\\psoc creator\\4.4\\psoc creator\\import\\gnu\\arm\\5.4.
 210              		.file 3 "c:\\program files (x86)\\cypress\\psoc creator\\4.4\\psoc creator\\import\\gnu\\arm\\5.4.
 211              		.file 4 "Generated_Source\\PSoC5/core_cm3.h"