ARM GAS  C:\Users\Jacob\AppData\Local\Temp\ccHBmStT.s 			page 1


   1              		.syntax unified
   2              		.cpu cortex-m3
   3              		.fpu softvfp
   4              		.eabi_attribute 20, 1
   5              		.eabi_attribute 21, 1
   6              		.eabi_attribute 23, 3
   7              		.eabi_attribute 24, 1
   8              		.eabi_attribute 25, 1
   9              		.eabi_attribute 26, 1
  10              		.eabi_attribute 30, 1
  11              		.eabi_attribute 34, 1
  12              		.eabi_attribute 18, 4
  13              		.thumb
  14              		.syntax unified
  15              		.file	"sensor.c"
  16              		.text
  17              	.Ltext0:
  18              		.cfi_sections	.debug_frame
  19              		.section	.text.sensor_isr_handler,"ax",%progbits
  20              		.align	2
  21              		.global	sensor_isr_handler
  22              		.thumb
  23              		.thumb_func
  24              		.type	sensor_isr_handler, %function
  25              	sensor_isr_handler:
  26              	.LFB71:
  27              		.file 1 "sensor.c"
   1:sensor.c      **** #include "project.h"
   2:sensor.c      **** 
   3:sensor.c      **** CY_ISR_PROTO(sensor_isr_handler);
   4:sensor.c      **** long count = 0;
   5:sensor.c      **** int newCountFlag = 0;
   6:sensor.c      **** #define countFreq 12.f //MHz count input
   7:sensor.c      **** #define WINDOW_SIZE 5    // Antallet af værdier i glidende gennemsnit
   8:sensor.c      **** 
   9:sensor.c      **** void initSensor()
  10:sensor.c      **** {
  11:sensor.c      ****     sensor_input_isr_StartEx(sensor_isr_handler);
  12:sensor.c      **** }
  13:sensor.c      **** 
  14:sensor.c      **** void startBurst()
  15:sensor.c      **** {
  16:sensor.c      ****     Sensor_Out_Start();
  17:sensor.c      **** }
  18:sensor.c      **** 
  19:sensor.c      **** void stopBurst()
  20:sensor.c      **** {
  21:sensor.c      ****     Sensor_Out_Stop();
  22:sensor.c      **** }
  23:sensor.c      **** 
  24:sensor.c      **** void startCounter()
  25:sensor.c      **** {
  26:sensor.c      ****     Counter_Sensor_WriteCounter(0);
  27:sensor.c      ****     Counter_Sensor_Start();
  28:sensor.c      **** }
  29:sensor.c      **** 
  30:sensor.c      **** double calcTime(double count)
ARM GAS  C:\Users\Jacob\AppData\Local\Temp\ccHBmStT.s 			page 2


  31:sensor.c      **** {
  32:sensor.c      ****     return count / countFreq;
  33:sensor.c      **** }
  34:sensor.c      **** 
  35:sensor.c      **** double calcAngle(long count)
  36:sensor.c      **** {
  37:sensor.c      ****     return ((count * 0.00581473) - 69.19523235);
  38:sensor.c      ****     
  39:sensor.c      **** }
  40:sensor.c      **** 
  41:sensor.c      **** static float values[WINDOW_SIZE] = {0};  // Array til at gemme de seneste 20 værdier
  42:sensor.c      **** static int i = 0;                  // Index for den aktuelle position i arrayet
  43:sensor.c      **** static float sum = 0;                  // Summen af de 20 værdier
  44:sensor.c      **** static int c = 0;                  // Antal værdier, der er blevet tilføjet
  45:sensor.c      **** 
  46:sensor.c      **** float FIRMovingAverage(float new_value) 
  47:sensor.c      **** {
  48:sensor.c      ****     // Opdater summen ved at trække den gamle værdi fra og tilføje den nye
  49:sensor.c      ****     sum -= values[i];
  50:sensor.c      ****     sum += new_value;
  51:sensor.c      **** 
  52:sensor.c      ****     // Opdater arrayet med den nye værdi
  53:sensor.c      ****     values[i] = new_value;
  54:sensor.c      **** 
  55:sensor.c      ****     // Flyt til næste position i arrayet, og wrap rundt efter WINDOW_SIZE
  56:sensor.c      ****     i = (i + 1) % WINDOW_SIZE;
  57:sensor.c      **** 
  58:sensor.c      ****     // Tæl op til WINDOW_SIZE for at sikre korrekt gennemsnit på de første kald
  59:sensor.c      ****     if (c < WINDOW_SIZE) {
  60:sensor.c      ****         c++;
  61:sensor.c      ****     }
  62:sensor.c      **** 
  63:sensor.c      ****     // Returner gennemsnittet
  64:sensor.c      ****     return sum / c;
  65:sensor.c      **** }
  66:sensor.c      **** 
  67:sensor.c      **** static float previous_output = 0;  // Gemmer det forrige output
  68:sensor.c      **** const float alpha = 0.2;          // Justerbar vægtning, mellem 0 og 1
  69:sensor.c      **** 
  70:sensor.c      **** float IIRFilter(float new_value) 
  71:sensor.c      **** {
  72:sensor.c      ****     // Beregn det nye output baseret på nuværende input og tidligere output
  73:sensor.c      ****     float output = alpha * new_value + (1 - alpha) * previous_output;
  74:sensor.c      **** 
  75:sensor.c      ****     // Opdater det forrige output
  76:sensor.c      ****     previous_output = output;
  77:sensor.c      **** 
  78:sensor.c      ****     return output;
  79:sensor.c      **** }
  80:sensor.c      **** 
  81:sensor.c      **** CY_ISR(sensor_isr_handler)
  82:sensor.c      **** {
  28              		.loc 1 82 0
  29              		.cfi_startproc
  30              		@ args = 0, pretend = 0, frame = 0
  31              		@ frame_needed = 0, uses_anonymous_args = 0
  32 0000 08B5     		push	{r3, lr}
ARM GAS  C:\Users\Jacob\AppData\Local\Temp\ccHBmStT.s 			page 3


  33              		.cfi_def_cfa_offset 8
  34              		.cfi_offset 3, -8
  35              		.cfi_offset 14, -4
  83:sensor.c      ****     count = Counter_Sensor_ReadCounter();
  36              		.loc 1 83 0
  37 0002 FFF7FEFF 		bl	Counter_Sensor_ReadCounter
  38              	.LVL0:
  39 0006 024B     		ldr	r3, .L3
  40 0008 1860     		str	r0, [r3]
  84:sensor.c      ****     Counter_Sensor_Stop();
  41              		.loc 1 84 0
  42 000a FFF7FEFF 		bl	Counter_Sensor_Stop
  43              	.LVL1:
  44 000e 08BD     		pop	{r3, pc}
  45              	.L4:
  46              		.align	2
  47              	.L3:
  48 0010 00000000 		.word	.LANCHOR0
  49              		.cfi_endproc
  50              	.LFE71:
  51              		.size	sensor_isr_handler, .-sensor_isr_handler
  52              		.section	.text.initSensor,"ax",%progbits
  53              		.align	2
  54              		.global	initSensor
  55              		.thumb
  56              		.thumb_func
  57              		.type	initSensor, %function
  58              	initSensor:
  59              	.LFB63:
  10:sensor.c      ****     sensor_input_isr_StartEx(sensor_isr_handler);
  60              		.loc 1 10 0
  61              		.cfi_startproc
  62              		@ args = 0, pretend = 0, frame = 0
  63              		@ frame_needed = 0, uses_anonymous_args = 0
  64 0000 08B5     		push	{r3, lr}
  65              		.cfi_def_cfa_offset 8
  66              		.cfi_offset 3, -8
  67              		.cfi_offset 14, -4
  11:sensor.c      **** }
  68              		.loc 1 11 0
  69 0002 0248     		ldr	r0, .L7
  70 0004 FFF7FEFF 		bl	sensor_input_isr_StartEx
  71              	.LVL2:
  72 0008 08BD     		pop	{r3, pc}
  73              	.L8:
  74 000a 00BF     		.align	2
  75              	.L7:
  76 000c 00000000 		.word	sensor_isr_handler
  77              		.cfi_endproc
  78              	.LFE63:
  79              		.size	initSensor, .-initSensor
  80              		.section	.text.startBurst,"ax",%progbits
  81              		.align	2
  82              		.global	startBurst
  83              		.thumb
  84              		.thumb_func
  85              		.type	startBurst, %function
ARM GAS  C:\Users\Jacob\AppData\Local\Temp\ccHBmStT.s 			page 4


  86              	startBurst:
  87              	.LFB64:
  15:sensor.c      ****     Sensor_Out_Start();
  88              		.loc 1 15 0
  89              		.cfi_startproc
  90              		@ args = 0, pretend = 0, frame = 0
  91              		@ frame_needed = 0, uses_anonymous_args = 0
  92 0000 08B5     		push	{r3, lr}
  93              		.cfi_def_cfa_offset 8
  94              		.cfi_offset 3, -8
  95              		.cfi_offset 14, -4
  16:sensor.c      **** }
  96              		.loc 1 16 0
  97 0002 FFF7FEFF 		bl	Sensor_Out_Start
  98              	.LVL3:
  99 0006 08BD     		pop	{r3, pc}
 100              		.cfi_endproc
 101              	.LFE64:
 102              		.size	startBurst, .-startBurst
 103              		.section	.text.stopBurst,"ax",%progbits
 104              		.align	2
 105              		.global	stopBurst
 106              		.thumb
 107              		.thumb_func
 108              		.type	stopBurst, %function
 109              	stopBurst:
 110              	.LFB65:
  20:sensor.c      ****     Sensor_Out_Stop();
 111              		.loc 1 20 0
 112              		.cfi_startproc
 113              		@ args = 0, pretend = 0, frame = 0
 114              		@ frame_needed = 0, uses_anonymous_args = 0
 115 0000 08B5     		push	{r3, lr}
 116              		.cfi_def_cfa_offset 8
 117              		.cfi_offset 3, -8
 118              		.cfi_offset 14, -4
  21:sensor.c      **** }
 119              		.loc 1 21 0
 120 0002 FFF7FEFF 		bl	Sensor_Out_Stop
 121              	.LVL4:
 122 0006 08BD     		pop	{r3, pc}
 123              		.cfi_endproc
 124              	.LFE65:
 125              		.size	stopBurst, .-stopBurst
 126              		.section	.text.startCounter,"ax",%progbits
 127              		.align	2
 128              		.global	startCounter
 129              		.thumb
 130              		.thumb_func
 131              		.type	startCounter, %function
 132              	startCounter:
 133              	.LFB66:
  25:sensor.c      ****     Counter_Sensor_WriteCounter(0);
 134              		.loc 1 25 0
 135              		.cfi_startproc
 136              		@ args = 0, pretend = 0, frame = 0
 137              		@ frame_needed = 0, uses_anonymous_args = 0
ARM GAS  C:\Users\Jacob\AppData\Local\Temp\ccHBmStT.s 			page 5


 138 0000 08B5     		push	{r3, lr}
 139              		.cfi_def_cfa_offset 8
 140              		.cfi_offset 3, -8
 141              		.cfi_offset 14, -4
  26:sensor.c      ****     Counter_Sensor_Start();
 142              		.loc 1 26 0
 143 0002 0020     		movs	r0, #0
 144 0004 FFF7FEFF 		bl	Counter_Sensor_WriteCounter
 145              	.LVL5:
  27:sensor.c      **** }
 146              		.loc 1 27 0
 147 0008 FFF7FEFF 		bl	Counter_Sensor_Start
 148              	.LVL6:
 149 000c 08BD     		pop	{r3, pc}
 150              		.cfi_endproc
 151              	.LFE66:
 152              		.size	startCounter, .-startCounter
 153              		.global	__aeabi_ddiv
 154 000e 00BF     		.section	.text.calcTime,"ax",%progbits
 155              		.align	2
 156              		.global	calcTime
 157              		.thumb
 158              		.thumb_func
 159              		.type	calcTime, %function
 160              	calcTime:
 161              	.LFB67:
  31:sensor.c      ****     return count / countFreq;
 162              		.loc 1 31 0
 163              		.cfi_startproc
 164              		@ args = 0, pretend = 0, frame = 0
 165              		@ frame_needed = 0, uses_anonymous_args = 0
 166              	.LVL7:
 167 0000 08B5     		push	{r3, lr}
 168              		.cfi_def_cfa_offset 8
 169              		.cfi_offset 3, -8
 170              		.cfi_offset 14, -4
  32:sensor.c      **** }
 171              		.loc 1 32 0
 172 0002 0022     		movs	r2, #0
 173 0004 014B     		ldr	r3, .L17
 174 0006 FFF7FEFF 		bl	__aeabi_ddiv
 175              	.LVL8:
  33:sensor.c      **** 
 176              		.loc 1 33 0
 177 000a 08BD     		pop	{r3, pc}
 178              	.L18:
 179              		.align	2
 180              	.L17:
 181 000c 00002840 		.word	1076363264
 182              		.cfi_endproc
 183              	.LFE67:
 184              		.size	calcTime, .-calcTime
 185              		.global	__aeabi_i2d
 186              		.global	__aeabi_dmul
 187              		.global	__aeabi_dsub
 188              		.section	.text.calcAngle,"ax",%progbits
 189              		.align	2
ARM GAS  C:\Users\Jacob\AppData\Local\Temp\ccHBmStT.s 			page 6


 190              		.global	calcAngle
 191              		.thumb
 192              		.thumb_func
 193              		.type	calcAngle, %function
 194              	calcAngle:
 195              	.LFB68:
  36:sensor.c      ****     return ((count * 0.00581473) - 69.19523235);
 196              		.loc 1 36 0
 197              		.cfi_startproc
 198              		@ args = 0, pretend = 0, frame = 0
 199              		@ frame_needed = 0, uses_anonymous_args = 0
 200              	.LVL9:
 201 0000 08B5     		push	{r3, lr}
 202              		.cfi_def_cfa_offset 8
 203              		.cfi_offset 3, -8
 204              		.cfi_offset 14, -4
  37:sensor.c      ****     
 205              		.loc 1 37 0
 206 0002 FFF7FEFF 		bl	__aeabi_i2d
 207              	.LVL10:
 208 0006 06A3     		adr	r3, .L21
 209 0008 D3E90023 		ldrd	r2, [r3]
 210 000c FFF7FEFF 		bl	__aeabi_dmul
 211              	.LVL11:
 212 0010 05A3     		adr	r3, .L21+8
 213 0012 D3E90023 		ldrd	r2, [r3]
 214 0016 FFF7FEFF 		bl	__aeabi_dsub
 215              	.LVL12:
  39:sensor.c      **** 
 216              		.loc 1 39 0
 217 001a 08BD     		pop	{r3, pc}
 218              	.L22:
 219 001c AFF30080 		.align	3
 220              	.L21:
 221 0020 0B0CF6B2 		.word	-1292497909
 222 0024 2FD1773F 		.word	1064816943
 223 0028 C297D3AF 		.word	-1345087550
 224 002c 7E4C5140 		.word	1079069822
 225              		.cfi_endproc
 226              	.LFE68:
 227              		.size	calcAngle, .-calcAngle
 228              		.global	__aeabi_fsub
 229              		.global	__aeabi_fadd
 230              		.global	__aeabi_i2f
 231              		.global	__aeabi_fdiv
 232              		.section	.text.FIRMovingAverage,"ax",%progbits
 233              		.align	2
 234              		.global	FIRMovingAverage
 235              		.thumb
 236              		.thumb_func
 237              		.type	FIRMovingAverage, %function
 238              	FIRMovingAverage:
 239              	.LFB69:
  47:sensor.c      ****     // Opdater summen ved at trække den gamle værdi fra og tilføje den nye
 240              		.loc 1 47 0
 241              		.cfi_startproc
 242              		@ args = 0, pretend = 0, frame = 0
ARM GAS  C:\Users\Jacob\AppData\Local\Temp\ccHBmStT.s 			page 7


 243              		@ frame_needed = 0, uses_anonymous_args = 0
 244              	.LVL13:
 245 0000 2DE9F041 		push	{r4, r5, r6, r7, r8, lr}
 246              		.cfi_def_cfa_offset 24
 247              		.cfi_offset 4, -24
 248              		.cfi_offset 5, -20
 249              		.cfi_offset 6, -16
 250              		.cfi_offset 7, -12
 251              		.cfi_offset 8, -8
 252              		.cfi_offset 14, -4
 253 0004 8046     		mov	r8, r0
  49:sensor.c      ****     sum += new_value;
 254              		.loc 1 49 0
 255 0006 144C     		ldr	r4, .L26
 256 0008 6568     		ldr	r5, [r4, #4]
 257 000a 04EB8507 		add	r7, r4, r5, lsl #2
 258 000e B968     		ldr	r1, [r7, #8]	@ float
 259 0010 E069     		ldr	r0, [r4, #28]	@ float
 260              	.LVL14:
 261 0012 FFF7FEFF 		bl	__aeabi_fsub
 262              	.LVL15:
  50:sensor.c      **** 
 263              		.loc 1 50 0
 264 0016 4146     		mov	r1, r8
 265 0018 FFF7FEFF 		bl	__aeabi_fadd
 266              	.LVL16:
 267 001c 0646     		mov	r6, r0
 268 001e E061     		str	r0, [r4, #28]	@ float
  53:sensor.c      **** 
 269              		.loc 1 53 0
 270 0020 C7F80880 		str	r8, [r7, #8]	@ float
  56:sensor.c      **** 
 271              		.loc 1 56 0
 272 0024 6A1C     		adds	r2, r5, #1
 273 0026 0D4B     		ldr	r3, .L26+4
 274 0028 83FB0231 		smull	r3, r1, r3, r2
 275 002c D317     		asrs	r3, r2, #31
 276 002e C3EB6103 		rsb	r3, r3, r1, asr #1
 277 0032 03EB8303 		add	r3, r3, r3, lsl #2
 278 0036 D31A     		subs	r3, r2, r3
 279 0038 6360     		str	r3, [r4, #4]
  59:sensor.c      ****         c++;
 280              		.loc 1 59 0
 281 003a 236A     		ldr	r3, [r4, #32]
 282 003c 042B     		cmp	r3, #4
 283 003e 01DC     		bgt	.L24
  60:sensor.c      ****     }
 284              		.loc 1 60 0
 285 0040 0133     		adds	r3, r3, #1
 286 0042 2362     		str	r3, [r4, #32]
 287              	.L24:
  64:sensor.c      **** }
 288              		.loc 1 64 0
 289 0044 044B     		ldr	r3, .L26
 290 0046 186A     		ldr	r0, [r3, #32]
 291 0048 FFF7FEFF 		bl	__aeabi_i2f
 292              	.LVL17:
ARM GAS  C:\Users\Jacob\AppData\Local\Temp\ccHBmStT.s 			page 8


 293 004c 0146     		mov	r1, r0
 294 004e 3046     		mov	r0, r6
 295 0050 FFF7FEFF 		bl	__aeabi_fdiv
 296              	.LVL18:
  65:sensor.c      **** 
 297              		.loc 1 65 0
 298 0054 BDE8F081 		pop	{r4, r5, r6, r7, r8, pc}
 299              	.LVL19:
 300              	.L27:
 301              		.align	2
 302              	.L26:
 303 0058 00000000 		.word	.LANCHOR0
 304 005c 67666666 		.word	1717986919
 305              		.cfi_endproc
 306              	.LFE69:
 307              		.size	FIRMovingAverage, .-FIRMovingAverage
 308              		.global	__aeabi_fmul
 309              		.section	.text.IIRFilter,"ax",%progbits
 310              		.align	2
 311              		.global	IIRFilter
 312              		.thumb
 313              		.thumb_func
 314              		.type	IIRFilter, %function
 315              	IIRFilter:
 316              	.LFB70:
  71:sensor.c      ****     // Beregn det nye output baseret på nuværende input og tidligere output
 317              		.loc 1 71 0
 318              		.cfi_startproc
 319              		@ args = 0, pretend = 0, frame = 0
 320              		@ frame_needed = 0, uses_anonymous_args = 0
 321              	.LVL20:
 322 0000 38B5     		push	{r3, r4, r5, lr}
 323              		.cfi_def_cfa_offset 16
 324              		.cfi_offset 3, -16
 325              		.cfi_offset 4, -12
 326              		.cfi_offset 5, -8
 327              		.cfi_offset 14, -4
  73:sensor.c      **** 
 328              		.loc 1 73 0
 329 0002 0749     		ldr	r1, .L30
 330 0004 FFF7FEFF 		bl	__aeabi_fmul
 331              	.LVL21:
 332 0008 0546     		mov	r5, r0
 333 000a 064C     		ldr	r4, .L30+4
 334 000c 0649     		ldr	r1, .L30+8
 335 000e 606A     		ldr	r0, [r4, #36]	@ float
 336 0010 FFF7FEFF 		bl	__aeabi_fmul
 337              	.LVL22:
 338 0014 0146     		mov	r1, r0
 339 0016 2846     		mov	r0, r5
 340 0018 FFF7FEFF 		bl	__aeabi_fadd
 341              	.LVL23:
  76:sensor.c      **** 
 342              		.loc 1 76 0
 343 001c 6062     		str	r0, [r4, #36]	@ float
  79:sensor.c      **** 
 344              		.loc 1 79 0
ARM GAS  C:\Users\Jacob\AppData\Local\Temp\ccHBmStT.s 			page 9


 345 001e 38BD     		pop	{r3, r4, r5, pc}
 346              	.L31:
 347              		.align	2
 348              	.L30:
 349 0020 CDCC4C3E 		.word	1045220557
 350 0024 00000000 		.word	.LANCHOR0
 351 0028 CDCC4C3F 		.word	1061997773
 352              		.cfi_endproc
 353              	.LFE70:
 354              		.size	IIRFilter, .-IIRFilter
 355              		.global	alpha
 356              		.global	newCountFlag
 357              		.global	count
 358              		.section	.rodata
 359              		.align	2
 360              		.type	alpha, %object
 361              		.size	alpha, 4
 362              	alpha:
 363 0000 CDCC4C3E 		.word	1045220557
 364              		.bss
 365              		.align	2
 366              		.set	.LANCHOR0,. + 0
 367              		.type	count, %object
 368              		.size	count, 4
 369              	count:
 370 0000 00000000 		.space	4
 371              		.type	i, %object
 372              		.size	i, 4
 373              	i:
 374 0004 00000000 		.space	4
 375              		.type	values, %object
 376              		.size	values, 20
 377              	values:
 378 0008 00000000 		.space	20
 378      00000000 
 378      00000000 
 378      00000000 
 378      00000000 
 379              		.type	sum, %object
 380              		.size	sum, 4
 381              	sum:
 382 001c 00000000 		.space	4
 383              		.type	c, %object
 384              		.size	c, 4
 385              	c:
 386 0020 00000000 		.space	4
 387              		.type	previous_output, %object
 388              		.size	previous_output, 4
 389              	previous_output:
 390 0024 00000000 		.space	4
 391              		.type	newCountFlag, %object
 392              		.size	newCountFlag, 4
 393              	newCountFlag:
 394 0028 00000000 		.space	4
 395              		.text
 396              	.Letext0:
 397              		.file 2 "c:\\program files (x86)\\cypress\\psoc creator\\4.4\\psoc creator\\import\\gnu\\arm\\5.4.
ARM GAS  C:\Users\Jacob\AppData\Local\Temp\ccHBmStT.s 			page 10


 398              		.file 3 "c:\\program files (x86)\\cypress\\psoc creator\\4.4\\psoc creator\\import\\gnu\\arm\\5.4.
 399              		.file 4 "Generated_Source\\PSoC5/core_cm3.h"
 400              		.file 5 "Generated_Source\\PSoC5/Counter_Sensor.h"
 401              		.file 6 "Generated_Source\\PSoC5/sensor_input_isr.h"
 402              		.file 7 "Generated_Source\\PSoC5/Sensor_Out.h"