ARM GAS  C:\Users\degn\AppData\Local\Temp\cckiPH3b.s 			page 1


   1              		.syntax unified
   2              		.cpu cortex-m3
   3              		.fpu softvfp
   4              		.eabi_attribute 20, 1
   5              		.eabi_attribute 21, 1
   6              		.eabi_attribute 23, 3
   7              		.eabi_attribute 24, 1
   8              		.eabi_attribute 25, 1
   9              		.eabi_attribute 26, 1
  10              		.eabi_attribute 30, 1
  11              		.eabi_attribute 34, 1
  12              		.eabi_attribute 18, 4
  13              		.thumb
  14              		.syntax unified
  15              		.file	"tfTest.c"
  16              		.text
  17              	.Ltext0:
  18              		.cfi_sections	.debug_frame
  19              		.global	__aeabi_i2f
  20              		.global	__aeabi_fadd
  21              		.global	__aeabi_f2iz
  22              		.global	__aeabi_fsub
  23              		.section	.text.tfTest,"ax",%progbits
  24              		.align	2
  25              		.global	tfTest
  26              		.thumb
  27              		.thumb_func
  28              		.type	tfTest, %function
  29              	tfTest:
  30              	.LFB0:
  31              		.file 1 "tfTest.c"
   1:tfTest.c      **** #include "tfTest.h"
   2:tfTest.c      **** #include "motor.h"
   3:tfTest.c      **** #include <math.h>
   4:tfTest.c      **** 
   5:tfTest.c      **** void tfTest(float speed, int offset1,int offset2)
   6:tfTest.c      **** {
  32              		.loc 1 6 0
  33              		.cfi_startproc
  34              		@ args = 0, pretend = 0, frame = 0
  35              		@ frame_needed = 0, uses_anonymous_args = 0
  36              	.LVL0:
  37 0000 38B5     		push	{r3, r4, r5, lr}
  38              		.cfi_def_cfa_offset 16
  39              		.cfi_offset 3, -16
  40              		.cfi_offset 4, -12
  41              		.cfi_offset 5, -8
  42              		.cfi_offset 14, -4
  43 0002 0446     		mov	r4, r0
  44 0004 1546     		mov	r5, r2
   7:tfTest.c      ****     setspeed(1, offset1 + (speed));
  45              		.loc 1 7 0
  46 0006 0846     		mov	r0, r1
  47              	.LVL1:
  48 0008 FFF7FEFF 		bl	__aeabi_i2f
  49              	.LVL2:
  50 000c 2146     		mov	r1, r4
ARM GAS  C:\Users\degn\AppData\Local\Temp\cckiPH3b.s 			page 2


  51 000e FFF7FEFF 		bl	__aeabi_fadd
  52              	.LVL3:
  53 0012 FFF7FEFF 		bl	__aeabi_f2iz
  54              	.LVL4:
  55 0016 0146     		mov	r1, r0
  56 0018 0120     		movs	r0, #1
  57 001a FFF7FEFF 		bl	setspeed
  58              	.LVL5:
   8:tfTest.c      ****     setspeed(2, offset2 - (speed));   
  59              		.loc 1 8 0
  60 001e 2846     		mov	r0, r5
  61 0020 FFF7FEFF 		bl	__aeabi_i2f
  62              	.LVL6:
  63 0024 2146     		mov	r1, r4
  64 0026 FFF7FEFF 		bl	__aeabi_fsub
  65              	.LVL7:
  66 002a FFF7FEFF 		bl	__aeabi_f2iz
  67              	.LVL8:
  68 002e 0146     		mov	r1, r0
  69 0030 0220     		movs	r0, #2
  70 0032 FFF7FEFF 		bl	setspeed
  71              	.LVL9:
  72 0036 38BD     		pop	{r3, r4, r5, pc}
  73              		.cfi_endproc
  74              	.LFE0:
  75              		.size	tfTest, .-tfTest
  76              		.global	__aeabi_f2d
  77              		.global	__aeabi_dmul
  78              		.global	__aeabi_d2f
  79              		.global	__aeabi_fmul
  80              		.section	.text.sinFunc,"ax",%progbits
  81              		.align	2
  82              		.global	sinFunc
  83              		.thumb
  84              		.thumb_func
  85              		.type	sinFunc, %function
  86              	sinFunc:
  87              	.LFB1:
   9:tfTest.c      **** }
  10:tfTest.c      **** 
  11:tfTest.c      **** 
  12:tfTest.c      **** float sinFunc(float freq, float time)
  13:tfTest.c      **** {
  88              		.loc 1 13 0
  89              		.cfi_startproc
  90              		@ args = 0, pretend = 0, frame = 0
  91              		@ frame_needed = 0, uses_anonymous_args = 0
  92              	.LVL10:
  93 0000 70B5     		push	{r4, r5, r6, lr}
  94              		.cfi_def_cfa_offset 16
  95              		.cfi_offset 4, -16
  96              		.cfi_offset 5, -12
  97              		.cfi_offset 6, -8
  98              		.cfi_offset 14, -4
  99 0002 0E46     		mov	r6, r1
  14:tfTest.c      ****     return 100*sinf(2.0f *M_PI*freq*time);
 100              		.loc 1 14 0
ARM GAS  C:\Users\degn\AppData\Local\Temp\cckiPH3b.s 			page 3


 101 0004 FFF7FEFF 		bl	__aeabi_f2d
 102              	.LVL11:
 103 0008 0BA3     		adr	r3, .L5
 104 000a D3E90023 		ldrd	r2, [r3]
 105 000e FFF7FEFF 		bl	__aeabi_dmul
 106              	.LVL12:
 107 0012 0446     		mov	r4, r0
 108 0014 0D46     		mov	r5, r1
 109 0016 3046     		mov	r0, r6
 110 0018 FFF7FEFF 		bl	__aeabi_f2d
 111              	.LVL13:
 112 001c 2246     		mov	r2, r4
 113 001e 2B46     		mov	r3, r5
 114 0020 FFF7FEFF 		bl	__aeabi_dmul
 115              	.LVL14:
 116 0024 FFF7FEFF 		bl	__aeabi_d2f
 117              	.LVL15:
 118 0028 FFF7FEFF 		bl	sinf
 119              	.LVL16:
 120 002c 0449     		ldr	r1, .L5+8
 121 002e FFF7FEFF 		bl	__aeabi_fmul
 122              	.LVL17:
  15:tfTest.c      **** }...
 123              		.loc 1 15 0
 124 0032 70BD     		pop	{r4, r5, r6, pc}
 125              	.LVL18:
 126              	.L6:
 127 0034 AFF30080 		.align	3
 128              	.L5:
 129 0038 182D4454 		.word	1413754136
 130 003c FB211940 		.word	1075388923
 131 0040 0000C842 		.word	1120403456
 132              		.cfi_endproc
 133              	.LFE1:
 134              		.size	sinFunc, .-sinFunc
 135              		.text
 136              	.Letext0:
 137              		.file 2 "motor.h"
 138              		.file 3 "c:\\program files (x86)\\cypress\\psoc creator\\4.4\\psoc creator\\import\\gnu\\arm\\5.4.