ARM GAS  C:\Users\degn\AppData\Local\Temp\cc710NLe.s 			page 1


   1              		.syntax unified
   2              		.cpu cortex-m3
   3              		.fpu softvfp
   4              		.eabi_attribute 20, 1
   5              		.eabi_attribute 21, 1
   6              		.eabi_attribute 23, 3
   7              		.eabi_attribute 24, 1
   8              		.eabi_attribute 25, 1
   9              		.eabi_attribute 26, 1
  10              		.eabi_attribute 30, 1
  11              		.eabi_attribute 34, 1
  12              		.eabi_attribute 18, 4
  13              		.thumb
  14              		.syntax unified
  15              		.file	"main.c"
  16              		.text
  17              	.Ltext0:
  18              		.cfi_sections	.debug_frame
  19              		.section	.text.main,"ax",%progbits
  20              		.align	2
  21              		.global	main
  22              		.thumb
  23              		.thumb_func
  24              		.type	main, %function
  25              	main:
  26              	.LFB63:
  27              		.file 1 "main.c"
   1:main.c        **** /* ========================================
   2:main.c        ****  *
   3:main.c        ****  * Copyright YOUR COMPANY, THE YEAR
   4:main.c        ****  * All Rights Reserved
   5:main.c        ****  * UNPUBLISHED, LICENSED SOFTWARE.
   6:main.c        ****  *
   7:main.c        ****  * CONFIDENTIAL AND PROPRIETARY INFORMATION
   8:main.c        ****  * WHICH IS THE PROPERTY OF your company.
   9:main.c        ****  *
  10:main.c        ****  * ========================================
  11:main.c        **** */
  12:main.c        **** #include "project.h"
  13:main.c        **** CY_ISR_PROTO(ISR_UART_rx_handler);
  14:main.c        **** void handleByteReceived(uint8_t byte1);
  15:main.c        **** uint8_t speed1 = 0;
  16:main.c        **** uint8_t speed2 = 0;
  17:main.c        **** int main(void)
  18:main.c        **** {
  28              		.loc 1 18 0
  29              		.cfi_startproc
  30              		@ Volatile: function does not return.
  31              		@ args = 0, pretend = 0, frame = 0
  32              		@ frame_needed = 0, uses_anonymous_args = 0
  33 0000 08B5     		push	{r3, lr}
  34              		.cfi_def_cfa_offset 8
  35              		.cfi_offset 3, -8
  36              		.cfi_offset 14, -4
  19:main.c        ****     CyGlobalIntEnable; /* Enable global interrupts. */
  37              		.loc 1 19 0
  38              		.syntax unified
ARM GAS  C:\Users\degn\AppData\Local\Temp\cc710NLe.s 			page 2


  39              	@ 19 "main.c" 1
  40 0002 62B6     		CPSIE   i
  41              	@ 0 "" 2
  20:main.c        **** 
  21:main.c        ****     /* Place your initialization/startup code here (e.g. MyInst_Start()) */
  22:main.c        ****     Clock_1_Start();
  42              		.loc 1 22 0
  43              		.thumb
  44              		.syntax unified
  45 0004 FFF7FEFF 		bl	Clock_1_Start
  46              	.LVL0:
  23:main.c        ****     PWM_1_Start();
  47              		.loc 1 23 0
  48 0008 FFF7FEFF 		bl	PWM_1_Start
  49              	.LVL1:
  24:main.c        ****     isr_uart_rx_StartEx(ISR_UART_rx_handler);
  50              		.loc 1 24 0
  51 000c 0548     		ldr	r0, .L4
  52 000e FFF7FEFF 		bl	isr_uart_rx_StartEx
  53              	.LVL2:
  25:main.c        ****     UART_1_Start();
  54              		.loc 1 25 0
  55 0012 FFF7FEFF 		bl	UART_1_Start
  56              	.LVL3:
  26:main.c        ****     UART_1_PutString("Drone Startet!\r\n");
  57              		.loc 1 26 0
  58 0016 0448     		ldr	r0, .L4+4
  59 0018 FFF7FEFF 		bl	UART_1_PutString
  60              	.LVL4:
  27:main.c        ****     UART_1_PutString("Styr motor 1, send hastighed i procent! (eg 10)\r\n");
  61              		.loc 1 27 0
  62 001c 0348     		ldr	r0, .L4+8
  63 001e FFF7FEFF 		bl	UART_1_PutString
  64              	.LVL5:
  65              	.L2:
  66 0022 FEE7     		b	.L2
  67              	.L5:
  68              		.align	2
  69              	.L4:
  70 0024 00000000 		.word	ISR_UART_rx_handler
  71 0028 00000000 		.word	.LC0
  72 002c 14000000 		.word	.LC1
  73              		.cfi_endproc
  74              	.LFE63:
  75              		.size	main, .-main
  76              		.section	.text.handleByteReceived,"ax",%progbits
  77              		.align	2
  78              		.global	handleByteReceived
  79              		.thumb
  80              		.thumb_func
  81              		.type	handleByteReceived, %function
  82              	handleByteReceived:
  83              	.LFB65:
  28:main.c        ****     for(;;)
  29:main.c        ****     {
  30:main.c        ****         /* Place your application code here. */
  31:main.c        ****     }
ARM GAS  C:\Users\degn\AppData\Local\Temp\cc710NLe.s 			page 3


  32:main.c        **** }
  33:main.c        **** 
  34:main.c        **** CY_ISR(ISR_UART_rx_handler)
  35:main.c        **** {
  36:main.c        ****     uint8_t bytesToRead = UART_1_GetRxBufferSize();
  37:main.c        ****     while (bytesToRead > 0)
  38:main.c        ****     {
  39:main.c        ****         uint8_t byteReceived = UART_1_ReadRxData();
  40:main.c        ****         UART_1_WriteTxData(byteReceived); // echo back
  41:main.c        ****         
  42:main.c        ****         handleByteReceived(byteReceived);
  43:main.c        ****         
  44:main.c        ****         bytesToRead--;
  45:main.c        ****     }
  46:main.c        **** }
  47:main.c        **** 
  48:main.c        **** void handleByteReceived(uint8_t byte)
  49:main.c        **** {
  84              		.loc 1 49 0
  85              		.cfi_startproc
  86              		@ args = 0, pretend = 0, frame = 0
  87              		@ frame_needed = 0, uses_anonymous_args = 0
  88              	.LVL6:
  89 0000 08B5     		push	{r3, lr}
  90              		.cfi_def_cfa_offset 8
  91              		.cfi_offset 3, -8
  92              		.cfi_offset 14, -4
  50:main.c        ****     switch (byte)
  93              		.loc 1 50 0
  94 0002 3038     		subs	r0, r0, #48
  95              	.LVL7:
  96 0004 0928     		cmp	r0, #9
  97 0006 3BD8     		bhi	.L6
  98 0008 DFE800F0 		tbb	[pc, r0]
  99              	.L9:
 100 000c 2D       		.byte	(.L8-.L9)/2
 101 000d 05       		.byte	(.L10-.L9)/2
 102 000e 12       		.byte	(.L11-.L9)/2
 103 000f 3A       		.byte	(.L6-.L9)/2
 104 0010 3A       		.byte	(.L6-.L9)/2
 105 0011 3A       		.byte	(.L6-.L9)/2
 106 0012 3A       		.byte	(.L6-.L9)/2
 107 0013 3A       		.byte	(.L6-.L9)/2
 108 0014 3A       		.byte	(.L6-.L9)/2
 109 0015 20       		.byte	(.L12-.L9)/2
 110              		.p2align 1
 111              	.L10:
  51:main.c        ****     {
  52:main.c        ****     case '1':
  53:main.c        ****         if (speed2 != 0)
 112              		.loc 1 53 0
 113 0016 1B4B     		ldr	r3, .L18
 114 0018 1B78     		ldrb	r3, [r3]	@ zero_extendqisi2
 115 001a 13B1     		cbz	r3, .L13
  54:main.c        ****             speed2 = speed2 - 50;
 116              		.loc 1 54 0
 117 001c 323B     		subs	r3, r3, #50
ARM GAS  C:\Users\degn\AppData\Local\Temp\cc710NLe.s 			page 4


 118 001e 194A     		ldr	r2, .L18
 119 0020 1370     		strb	r3, [r2]
 120              	.L13:
  55:main.c        ****         PWM_1_WriteCompare2(1000 + speed2);
 121              		.loc 1 55 0
 122 0022 184B     		ldr	r3, .L18
 123 0024 1878     		ldrb	r0, [r3]	@ zero_extendqisi2
 124 0026 00F57A70 		add	r0, r0, #1000
 125 002a FFF7FEFF 		bl	PWM_1_WriteCompare2
 126              	.LVL8:
  56:main.c        ****         break;
 127              		.loc 1 56 0
 128 002e 08BD     		pop	{r3, pc}
 129              	.L11:
  57:main.c        ****     case '2':
  58:main.c        ****         if (speed2 < 200)
 130              		.loc 1 58 0
 131 0030 144B     		ldr	r3, .L18
 132 0032 1B78     		ldrb	r3, [r3]	@ zero_extendqisi2
 133 0034 C72B     		cmp	r3, #199
 134 0036 02D8     		bhi	.L14
  59:main.c        ****             speed2 = speed2 + 50;
 135              		.loc 1 59 0
 136 0038 3233     		adds	r3, r3, #50
 137 003a 124A     		ldr	r2, .L18
 138 003c 1370     		strb	r3, [r2]
 139              	.L14:
  60:main.c        ****         PWM_1_WriteCompare2(1000 + speed2);
 140              		.loc 1 60 0
 141 003e 114B     		ldr	r3, .L18
 142 0040 1878     		ldrb	r0, [r3]	@ zero_extendqisi2
 143 0042 00F57A70 		add	r0, r0, #1000
 144 0046 FFF7FEFF 		bl	PWM_1_WriteCompare2
 145              	.LVL9:
  61:main.c        ****         break;
 146              		.loc 1 61 0
 147 004a 08BD     		pop	{r3, pc}
 148              	.L12:
  62:main.c        ****     case '9':
  63:main.c        ****         if (speed1 != 0)
 149              		.loc 1 63 0
 150 004c 0D4B     		ldr	r3, .L18
 151 004e 5B78     		ldrb	r3, [r3, #1]	@ zero_extendqisi2
 152 0050 13B1     		cbz	r3, .L15
  64:main.c        ****             speed1 = speed1 - 50;
 153              		.loc 1 64 0
 154 0052 323B     		subs	r3, r3, #50
 155 0054 0B4A     		ldr	r2, .L18
 156 0056 5370     		strb	r3, [r2, #1]
 157              	.L15:
  65:main.c        ****         PWM_1_WriteCompare1(1000 + speed1);
 158              		.loc 1 65 0
 159 0058 0A4B     		ldr	r3, .L18
 160 005a 5878     		ldrb	r0, [r3, #1]	@ zero_extendqisi2
 161 005c 00F57A70 		add	r0, r0, #1000
 162 0060 FFF7FEFF 		bl	PWM_1_WriteCompare1
 163              	.LVL10:
ARM GAS  C:\Users\degn\AppData\Local\Temp\cc710NLe.s 			page 5


  66:main.c        ****         break;
 164              		.loc 1 66 0
 165 0064 08BD     		pop	{r3, pc}
 166              	.L8:
  67:main.c        ****     case '0':
  68:main.c        ****         if (speed1 < 200)
 167              		.loc 1 68 0
 168 0066 074B     		ldr	r3, .L18
 169 0068 5B78     		ldrb	r3, [r3, #1]	@ zero_extendqisi2
 170 006a C72B     		cmp	r3, #199
 171 006c 02D8     		bhi	.L16
  69:main.c        ****             speed1 = speed1 + 50;
 172              		.loc 1 69 0
 173 006e 3233     		adds	r3, r3, #50
 174 0070 044A     		ldr	r2, .L18
 175 0072 5370     		strb	r3, [r2, #1]
 176              	.L16:
  70:main.c        ****         PWM_1_WriteCompare1(1000 + speed1);
 177              		.loc 1 70 0
 178 0074 034B     		ldr	r3, .L18
 179 0076 5878     		ldrb	r0, [r3, #1]	@ zero_extendqisi2
 180 0078 00F57A70 		add	r0, r0, #1000
 181 007c FFF7FEFF 		bl	PWM_1_WriteCompare1
 182              	.LVL11:
 183              	.L6:
 184 0080 08BD     		pop	{r3, pc}
 185              	.L19:
 186 0082 00BF     		.align	2
 187              	.L18:
 188 0084 00000000 		.word	.LANCHOR0
 189              		.cfi_endproc
 190              	.LFE65:
 191              		.size	handleByteReceived, .-handleByteReceived
 192              		.section	.text.ISR_UART_rx_handler,"ax",%progbits
 193              		.align	2
 194              		.global	ISR_UART_rx_handler
 195              		.thumb
 196              		.thumb_func
 197              		.type	ISR_UART_rx_handler, %function
 198              	ISR_UART_rx_handler:
 199              	.LFB64:
  35:main.c        ****     uint8_t bytesToRead = UART_1_GetRxBufferSize();
 200              		.loc 1 35 0
 201              		.cfi_startproc
 202              		@ args = 0, pretend = 0, frame = 0
 203              		@ frame_needed = 0, uses_anonymous_args = 0
 204 0000 38B5     		push	{r3, r4, r5, lr}
 205              		.cfi_def_cfa_offset 16
 206              		.cfi_offset 3, -16
 207              		.cfi_offset 4, -12
 208              		.cfi_offset 5, -8
 209              		.cfi_offset 14, -4
  36:main.c        ****     while (bytesToRead > 0)
 210              		.loc 1 36 0
 211 0002 FFF7FEFF 		bl	UART_1_GetRxBufferSize
 212              	.LVL12:
 213 0006 0446     		mov	r4, r0
ARM GAS  C:\Users\degn\AppData\Local\Temp\cc710NLe.s 			page 6


 214              	.LVL13:
  37:main.c        ****     {
 215              		.loc 1 37 0
 216 0008 09E0     		b	.L21
 217              	.L22:
 218              	.LBB2:
  39:main.c        ****         UART_1_WriteTxData(byteReceived); // echo back
 219              		.loc 1 39 0
 220 000a FFF7FEFF 		bl	UART_1_ReadRxData
 221              	.LVL14:
 222 000e 0546     		mov	r5, r0
 223              	.LVL15:
  40:main.c        ****         
 224              		.loc 1 40 0
 225 0010 FFF7FEFF 		bl	UART_1_WriteTxData
 226              	.LVL16:
  42:main.c        ****         
 227              		.loc 1 42 0
 228 0014 2846     		mov	r0, r5
 229 0016 FFF7FEFF 		bl	handleByteReceived
 230              	.LVL17:
  44:main.c        ****     }
 231              		.loc 1 44 0
 232 001a 013C     		subs	r4, r4, #1
 233              	.LVL18:
 234 001c E4B2     		uxtb	r4, r4
 235              	.LVL19:
 236              	.L21:
 237              	.LBE2:
  37:main.c        ****     {
 238              		.loc 1 37 0
 239 001e 002C     		cmp	r4, #0
 240 0020 F3D1     		bne	.L22
  46:main.c        **** 
 241              		.loc 1 46 0
 242 0022 38BD     		pop	{r3, r4, r5, pc}
 243              		.cfi_endproc
 244              	.LFE64:
 245              		.size	ISR_UART_rx_handler, .-ISR_UART_rx_handler
 246              		.global	speed2
 247              		.global	speed1
 248              		.section	.rodata.str1.4,"aMS",%progbits,1
 249              		.align	2
 250              	.LC0:
 251 0000 44726F6E 		.ascii	"Drone Startet!\015\012\000"
 251      65205374 
 251      61727465 
 251      74210D0A 
 251      00
 252 0011 000000   		.space	3
 253              	.LC1:
 254 0014 53747972 		.ascii	"Styr motor 1, send hastighed i procent! (eg 10)\015"
 254      206D6F74 
 254      6F722031 
 254      2C207365 
 254      6E642068 
 255 0044 0A00     		.ascii	"\012\000"
ARM GAS  C:\Users\degn\AppData\Local\Temp\cc710NLe.s 			page 7


 256              		.bss
 257              		.set	.LANCHOR0,. + 0
 258              		.type	speed2, %object
 259              		.size	speed2, 1
 260              	speed2:
 261 0000 00       		.space	1
 262              		.type	speed1, %object
 263              		.size	speed1, 1
 264              	speed1:
 265 0001 00       		.space	1
 266              		.text
 267              	.Letext0:
 268              		.file 2 "c:\\program files (x86)\\cypress\\psoc creator\\4.4\\psoc creator\\import\\gnu\\arm\\5.4.
 269              		.file 3 "c:\\program files (x86)\\cypress\\psoc creator\\4.4\\psoc creator\\import\\gnu\\arm\\5.4.
 270              		.file 4 "Generated_Source\\PSoC5/core_cm3.h"
 271              		.file 5 "Generated_Source\\PSoC5/Clock_1.h"
 272              		.file 6 "Generated_Source\\PSoC5/PWM_1.h"
 273              		.file 7 "Generated_Source\\PSoC5/isr_uart_rx.h"
 274              		.file 8 "Generated_Source\\PSoC5/UART_1.h"