ARM GAS  C:\Users\andre\AppData\Local\Temp\ccrTvY0Y.s 			page 1


   1              		.syntax unified
   2              		.cpu cortex-m3
   3              		.fpu softvfp
   4              		.eabi_attribute 20, 1
   5              		.eabi_attribute 21, 1
   6              		.eabi_attribute 23, 3
   7              		.eabi_attribute 24, 1
   8              		.eabi_attribute 25, 1
   9              		.eabi_attribute 26, 1
  10              		.eabi_attribute 30, 1
  11              		.eabi_attribute 34, 1
  12              		.eabi_attribute 18, 4
  13              		.thumb
  14              		.syntax unified
  15              		.file	"PIDController.c"
  16              		.text
  17              	.Ltext0:
  18              		.cfi_sections	.debug_frame
  19              		.global	__aeabi_fcmple
  20              		.section	.text.PIDStartUp,"ax",%progbits
  21              		.align	2
  22              		.global	PIDStartUp
  23              		.thumb
  24              		.thumb_func
  25              		.type	PIDStartUp, %function
  26              	PIDStartUp:
  27              	.LFB63:
  28              		.file 1 "PIDController.c"
   1:PIDController.c **** #include "PIDController.h"
   2:PIDController.c **** 
   3:PIDController.c **** float kp_ = 0;
   4:PIDController.c **** float ki_ = 0;
   5:PIDController.c **** float kd_ = 0;
   6:PIDController.c **** float iMin_ = 0;
   7:PIDController.c **** float iMax_ = 0;
   8:PIDController.c **** float dt_ = 0;
   9:PIDController.c **** float setpoint_ = 0;
  10:PIDController.c **** float previousError_ = 0;
  11:PIDController.c **** float i_ = 0;
  12:PIDController.c **** 
  13:PIDController.c **** 
  14:PIDController.c **** // The PIDStartUp function initializes the PID controller with the given parameters.
  15:PIDController.c **** // kp is the proportional gain factor, ki is the integral gain factor, and kd is the derivative gai
  16:PIDController.c **** // Additionally, iMax and iMin define the maximum and minimum limits for the integral term, respect
  17:PIDController.c **** // The time interval between each sample is specified by the parameter dt, in seconds.
  18:PIDController.c **** void PIDStartUp(float kp, float ki, float kd, float iMax, float iMin, float dt)
  19:PIDController.c **** {
  29              		.loc 1 19 0
  30              		.cfi_startproc
  31              		@ args = 8, pretend = 0, frame = 0
  32              		@ frame_needed = 0, uses_anonymous_args = 0
  33              	.LVL0:
  34 0000 F8B5     		push	{r3, r4, r5, r6, r7, lr}
  35              		.cfi_def_cfa_offset 24
  36              		.cfi_offset 3, -24
  37              		.cfi_offset 4, -20
  38              		.cfi_offset 5, -16
ARM GAS  C:\Users\andre\AppData\Local\Temp\ccrTvY0Y.s 			page 2


  39              		.cfi_offset 6, -12
  40              		.cfi_offset 7, -8
  41              		.cfi_offset 14, -4
  42 0002 0746     		mov	r7, r0
  43 0004 0E46     		mov	r6, r1
  44 0006 1546     		mov	r5, r2
  45 0008 1C46     		mov	r4, r3
  20:PIDController.c ****     if (dt_ <= 0 || iMax_<= iMin_)
  46              		.loc 1 20 0
  47 000a 0021     		movs	r1, #0
  48              	.LVL1:
  49 000c 0A4B     		ldr	r3, .L4
  50              	.LVL2:
  51 000e 1868     		ldr	r0, [r3]	@ float
  52              	.LVL3:
  53 0010 FFF7FEFF 		bl	__aeabi_fcmple
  54              	.LVL4:
  55 0014 70B9     		cbnz	r0, .L1
  56              		.loc 1 20 0 is_stmt 0 discriminator 1
  57 0016 084B     		ldr	r3, .L4
  58 0018 9968     		ldr	r1, [r3, #8]	@ float
  59 001a 5868     		ldr	r0, [r3, #4]	@ float
  60 001c FFF7FEFF 		bl	__aeabi_fcmple
  61              	.LVL5:
  62 0020 40B9     		cbnz	r0, .L1
  21:PIDController.c ****     {
  22:PIDController.c ****         //Error handling
  23:PIDController.c ****         return;
  24:PIDController.c ****     }
  25:PIDController.c ****     kp_ = kp;
  63              		.loc 1 25 0 is_stmt 1
  64 0022 054B     		ldr	r3, .L4
  65 0024 DF60     		str	r7, [r3, #12]	@ float
  26:PIDController.c ****     ki_ = ki;
  66              		.loc 1 26 0
  67 0026 1E61     		str	r6, [r3, #16]	@ float
  27:PIDController.c ****     kd_ = kd;
  68              		.loc 1 27 0
  69 0028 5D61     		str	r5, [r3, #20]	@ float
  28:PIDController.c ****     iMin_ = iMin;
  70              		.loc 1 28 0
  71 002a 069A     		ldr	r2, [sp, #24]	@ float
  72 002c 9A60     		str	r2, [r3, #8]	@ float
  29:PIDController.c ****     iMax_ = iMax;
  73              		.loc 1 29 0
  74 002e 5C60     		str	r4, [r3, #4]	@ float
  30:PIDController.c ****     dt_ = dt;
  75              		.loc 1 30 0
  76 0030 079A     		ldr	r2, [sp, #28]	@ float
  77 0032 1A60     		str	r2, [r3]	@ float
  78              	.L1:
  79 0034 F8BD     		pop	{r3, r4, r5, r6, r7, pc}
  80              	.LVL6:
  81              	.L5:
  82 0036 00BF     		.align	2
  83              	.L4:
  84 0038 00000000 		.word	.LANCHOR0
ARM GAS  C:\Users\andre\AppData\Local\Temp\ccrTvY0Y.s 			page 3


  85              		.cfi_endproc
  86              	.LFE63:
  87              		.size	PIDStartUp, .-PIDStartUp
  88              		.section	.text.PIDSetpointChange,"ax",%progbits
  89              		.align	2
  90              		.global	PIDSetpointChange
  91              		.thumb
  92              		.thumb_func
  93              		.type	PIDSetpointChange, %function
  94              	PIDSetpointChange:
  95              	.LFB64:
  31:PIDController.c **** }
  32:PIDController.c **** 
  33:PIDController.c **** //The PIDSetpointChange function updates the setpoint, which is the target value the system 
  34:PIDController.c **** //should reach. This target value is provided through the setpoint parameter.
  35:PIDController.c **** void PIDSetpointChange(float setpoint)
  36:PIDController.c **** {
  96              		.loc 1 36 0
  97              		.cfi_startproc
  98              		@ args = 0, pretend = 0, frame = 0
  99              		@ frame_needed = 0, uses_anonymous_args = 0
 100              		@ link register save eliminated.
 101              	.LVL7:
  37:PIDController.c ****     setpoint_ = setpoint;
 102              		.loc 1 37 0
 103 0000 014B     		ldr	r3, .L7
 104 0002 9861     		str	r0, [r3, #24]	@ float
 105 0004 7047     		bx	lr
 106              	.L8:
 107 0006 00BF     		.align	2
 108              	.L7:
 109 0008 00000000 		.word	.LANCHOR0
 110              		.cfi_endproc
 111              	.LFE64:
 112              		.size	PIDSetpointChange, .-PIDSetpointChange
 113              		.global	__aeabi_fsub
 114              		.global	__aeabi_fmul
 115              		.global	__aeabi_fadd
 116              		.global	__aeabi_fcmplt
 117              		.global	__aeabi_fcmpgt
 118              		.global	__aeabi_fdiv
 119              		.section	.text.PIDUpdate,"ax",%progbits
 120              		.align	2
 121              		.global	PIDUpdate
 122              		.thumb
 123              		.thumb_func
 124              		.type	PIDUpdate, %function
 125              	PIDUpdate:
 126              	.LFB65:
  38:PIDController.c **** }
  39:PIDController.c **** 
  40:PIDController.c **** 
  41:PIDController.c **** //The PIDUpdate function performs a single step of the PID control algorithm. 
  42:PIDController.c **** //The parameters proportional, integral, and derivative are useful for analysis or debugging, 
  43:PIDController.c **** //as they hold the values of the proportional, integral, and derivative terms respectively. 
  44:PIDController.c **** //The current system output is provided via the currentOutput parameter, and the PID controller’s
  45:PIDController.c **** float PIDUpdate(float currentOutput, float* proportional, float* integral, float* derivative)
ARM GAS  C:\Users\andre\AppData\Local\Temp\ccrTvY0Y.s 			page 4


  46:PIDController.c **** {
 127              		.loc 1 46 0
 128              		.cfi_startproc
 129              		@ args = 0, pretend = 0, frame = 0
 130              		@ frame_needed = 0, uses_anonymous_args = 0
 131              	.LVL8:
 132 0000 2DE9F84F 		push	{r3, r4, r5, r6, r7, r8, r9, r10, fp, lr}
 133              		.cfi_def_cfa_offset 40
 134              		.cfi_offset 3, -40
 135              		.cfi_offset 4, -36
 136              		.cfi_offset 5, -32
 137              		.cfi_offset 6, -28
 138              		.cfi_offset 7, -24
 139              		.cfi_offset 8, -20
 140              		.cfi_offset 9, -16
 141              		.cfi_offset 10, -12
 142              		.cfi_offset 11, -8
 143              		.cfi_offset 14, -4
 144 0004 8A46     		mov	r10, r1
 145 0006 9146     		mov	r9, r2
 146 0008 9846     		mov	r8, r3
 147              	.LVL9:
  47:PIDController.c ****     float output = 0;
  48:PIDController.c ****     float p = 0;
  49:PIDController.c ****     float i = 0;
  50:PIDController.c ****     float d = 0;
  51:PIDController.c ****     float currentError = 0;
  52:PIDController.c ****     
  53:PIDController.c ****     //Calculating the current error
  54:PIDController.c ****     currentError = setpoint_ - currentOutput;
 148              		.loc 1 54 0
 149 000a 264C     		ldr	r4, .L16
 150 000c 0146     		mov	r1, r0
 151              	.LVL10:
 152 000e A069     		ldr	r0, [r4, #24]	@ float
 153              	.LVL11:
 154 0010 FFF7FEFF 		bl	__aeabi_fsub
 155              	.LVL12:
 156 0014 0546     		mov	r5, r0
 157              	.LVL13:
  55:PIDController.c ****     
  56:PIDController.c ****     //Calculating the proportional part
  57:PIDController.c ****     p = kp_* currentError;
 158              		.loc 1 57 0
 159 0016 E168     		ldr	r1, [r4, #12]	@ float
 160 0018 FFF7FEFF 		bl	__aeabi_fmul
 161              	.LVL14:
 162 001c 0746     		mov	r7, r0
 163              	.LVL15:
  58:PIDController.c ****     
  59:PIDController.c ****     //Calculating the integral part
  60:PIDController.c ****     i_ += ki_ * (currentError * dt_);
 164              		.loc 1 60 0
 165 001e 2668     		ldr	r6, [r4]	@ float
 166 0020 3146     		mov	r1, r6
 167 0022 2846     		mov	r0, r5
 168              	.LVL16:
ARM GAS  C:\Users\andre\AppData\Local\Temp\ccrTvY0Y.s 			page 5


 169 0024 FFF7FEFF 		bl	__aeabi_fmul
 170              	.LVL17:
 171 0028 2169     		ldr	r1, [r4, #16]	@ float
 172 002a FFF7FEFF 		bl	__aeabi_fmul
 173              	.LVL18:
 174 002e E169     		ldr	r1, [r4, #28]	@ float
 175 0030 FFF7FEFF 		bl	__aeabi_fadd
 176              	.LVL19:
 177 0034 8346     		mov	fp, r0
  61:PIDController.c ****     
  62:PIDController.c ****     //Limits for the integral part
  63:PIDController.c ****     i_ = (i_ < iMin_) ? iMin_ : (i_ > iMax_) ? iMax_ : i_;
 178              		.loc 1 63 0
 179 0036 A468     		ldr	r4, [r4, #8]	@ float
 180 0038 2146     		mov	r1, r4
 181 003a FFF7FEFF 		bl	__aeabi_fcmplt
 182              	.LVL20:
 183 003e 38B9     		cbnz	r0, .L10
 184              		.loc 1 63 0 is_stmt 0 discriminator 2
 185 0040 184B     		ldr	r3, .L16
 186 0042 5C68     		ldr	r4, [r3, #4]	@ float
 187 0044 2146     		mov	r1, r4
 188 0046 5846     		mov	r0, fp
 189 0048 FFF7FEFF 		bl	__aeabi_fcmpgt
 190              	.LVL21:
 191 004c 00B9     		cbnz	r0, .L10
 192 004e 5C46     		mov	r4, fp
 193              	.L10:
 194              		.loc 1 63 0 discriminator 8
 195 0050 144B     		ldr	r3, .L16
 196 0052 DC61     		str	r4, [r3, #28]	@ float
 197              	.LVL22:
  64:PIDController.c ****     
  65:PIDController.c ****     //Assign to the i variable for possible debugging
  66:PIDController.c ****     i = i_;
  67:PIDController.c ****     
  68:PIDController.c ****     //Calculating the derivative part, and avoiding division by 0
  69:PIDController.c ****     d = (dt_ <= 0) ? 0: kd_ * (currentError - previousError_) / dt_;
 198              		.loc 1 69 0 is_stmt 1 discriminator 8
 199 0054 0021     		movs	r1, #0
 200 0056 3046     		mov	r0, r6
 201 0058 FFF7FEFF 		bl	__aeabi_fcmple
 202              	.LVL23:
 203 005c 78B9     		cbnz	r0, .L14
 204              		.loc 1 69 0 is_stmt 0 discriminator 2
 205 005e DFF844B0 		ldr	fp, .L16
 206 0062 DBF82010 		ldr	r1, [fp, #32]	@ float
 207 0066 2846     		mov	r0, r5
 208 0068 FFF7FEFF 		bl	__aeabi_fsub
 209              	.LVL24:
 210 006c DBF81410 		ldr	r1, [fp, #20]	@ float
 211 0070 FFF7FEFF 		bl	__aeabi_fmul
 212              	.LVL25:
 213 0074 3146     		mov	r1, r6
 214 0076 FFF7FEFF 		bl	__aeabi_fdiv
 215              	.LVL26:
 216 007a 0646     		mov	r6, r0
ARM GAS  C:\Users\andre\AppData\Local\Temp\ccrTvY0Y.s 			page 6


 217 007c 00E0     		b	.L12
 218              	.L14:
 219              		.loc 1 69 0
 220 007e 0026     		movs	r6, #0
 221              	.L12:
 222              	.LVL27:
  70:PIDController.c ****     
  71:PIDController.c ****     //Calculating the output
  72:PIDController.c ****     output = p + i + d;
 223              		.loc 1 72 0 is_stmt 1 discriminator 4
 224 0080 3946     		mov	r1, r7
 225 0082 2046     		mov	r0, r4
 226 0084 FFF7FEFF 		bl	__aeabi_fadd
 227              	.LVL28:
 228 0088 0146     		mov	r1, r0
 229 008a 3046     		mov	r0, r6
 230 008c FFF7FEFF 		bl	__aeabi_fadd
 231              	.LVL29:
  73:PIDController.c ****     
  74:PIDController.c ****     //Saving the p, i and d for analysis or debugging
  75:PIDController.c ****     *proportional = p;
 232              		.loc 1 75 0 discriminator 4
 233 0090 CAF80070 		str	r7, [r10]	@ float
  76:PIDController.c ****     *integral = i;
 234              		.loc 1 76 0 discriminator 4
 235 0094 C9F80040 		str	r4, [r9]	@ float
  77:PIDController.c ****     *derivative = d;
 236              		.loc 1 77 0 discriminator 4
 237 0098 C8F80060 		str	r6, [r8]	@ float
  78:PIDController.c ****     
  79:PIDController.c ****     //Saving the current error to later use
  80:PIDController.c ****     previousError_ = currentError;
 238              		.loc 1 80 0 discriminator 4
 239 009c 014B     		ldr	r3, .L16
 240 009e 1D62     		str	r5, [r3, #32]	@ float
  81:PIDController.c ****     
  82:PIDController.c ****     return output;
  83:PIDController.c **** }...
 241              		.loc 1 83 0 discriminator 4
 242 00a0 BDE8F88F 		pop	{r3, r4, r5, r6, r7, r8, r9, r10, fp, pc}
 243              	.LVL30:
 244              	.L17:
 245              		.align	2
 246              	.L16:
 247 00a4 00000000 		.word	.LANCHOR0
 248              		.cfi_endproc
 249              	.LFE65:
 250              		.size	PIDUpdate, .-PIDUpdate
 251              		.global	i_
 252              		.global	previousError_
 253              		.global	setpoint_
 254              		.global	dt_
 255              		.global	iMax_
 256              		.global	iMin_
 257              		.global	kd_
 258              		.global	ki_
 259              		.global	kp_
ARM GAS  C:\Users\andre\AppData\Local\Temp\ccrTvY0Y.s 			page 7


 260              		.bss
 261              		.align	2
 262              		.set	.LANCHOR0,. + 0
 263              		.type	dt_, %object
 264              		.size	dt_, 4
 265              	dt_:
 266 0000 00000000 		.space	4
 267              		.type	iMax_, %object
 268              		.size	iMax_, 4
 269              	iMax_:
 270 0004 00000000 		.space	4
 271              		.type	iMin_, %object
 272              		.size	iMin_, 4
 273              	iMin_:
 274 0008 00000000 		.space	4
 275              		.type	kp_, %object
 276              		.size	kp_, 4
 277              	kp_:
 278 000c 00000000 		.space	4
 279              		.type	ki_, %object
 280              		.size	ki_, 4
 281              	ki_:
 282 0010 00000000 		.space	4
 283              		.type	kd_, %object
 284              		.size	kd_, 4
 285              	kd_:
 286 0014 00000000 		.space	4
 287              		.type	setpoint_, %object
 288              		.size	setpoint_, 4
 289              	setpoint_:
 290 0018 00000000 		.space	4
 291              		.type	i_, %object
 292              		.size	i_, 4
 293              	i_:
 294 001c 00000000 		.space	4
 295              		.type	previousError_, %object
 296              		.size	previousError_, 4
 297              	previousError_:
 298 0020 00000000 		.space	4
 299              		.text
 300              	.Letext0:
 301              		.file 2 "c:\\program files (x86)\\cypress\\psoc creator\\4.4\\psoc creator\\import\\gnu\\arm\\5.4.
 302              		.file 3 "c:\\program files (x86)\\cypress\\psoc creator\\4.4\\psoc creator\\import\\gnu\\arm\\5.4.
 303              		.file 4 "Generated_Source\\PSoC5/core_cm3.h"