ARM GAS  C:\Users\andre\AppData\Local\Temp\ccdDbEn7.s 			page 1


   1              		.syntax unified
   2              		.cpu cortex-m3
   3              		.fpu softvfp
   4              		.eabi_attribute 20, 1
   5              		.eabi_attribute 21, 1
   6              		.eabi_attribute 23, 3
   7              		.eabi_attribute 24, 1
   8              		.eabi_attribute 25, 1
   9              		.eabi_attribute 26, 1
  10              		.eabi_attribute 30, 1
  11              		.eabi_attribute 34, 1
  12              		.eabi_attribute 18, 4
  13              		.thumb
  14              		.syntax unified
  15              		.file	"PIDTest.c"
  16              		.text
  17              	.Ltext0:
  18              		.cfi_sections	.debug_frame
  19              		.section	.text.Testinit,"ax",%progbits
  20              		.align	2
  21              		.global	Testinit
  22              		.thumb
  23              		.thumb_func
  24              		.type	Testinit, %function
  25              	Testinit:
  26              	.LFB63:
  27              		.file 1 "PIDTest.c"
   1:PIDTest.c     **** /* ========================================
   2:PIDTest.c     ****  *
   3:PIDTest.c     ****  * Copyright YOUR COMPANY, THE YEAR
   4:PIDTest.c     ****  * All Rights Reserved
   5:PIDTest.c     ****  * UNPUBLISHED, LICENSED SOFTWARE.
   6:PIDTest.c     ****  *
   7:PIDTest.c     ****  * CONFIDENTIAL AND PROPRIETARY INFORMATION
   8:PIDTest.c     ****  * WHICH IS THE PROPERTY OF your company.
   9:PIDTest.c     ****  *
  10:PIDTest.c     ****  * ========================================
  11:PIDTest.c     **** */
  12:PIDTest.c     **** 
  13:PIDTest.c     **** #include "PIDTest.h"
  14:PIDTest.c     **** 
  15:PIDTest.c     **** void Testinit()
  16:PIDTest.c     **** {
  28              		.loc 1 16 0
  29              		.cfi_startproc
  30              		@ args = 0, pretend = 0, frame = 0
  31              		@ frame_needed = 0, uses_anonymous_args = 0
  32 0000 08B5     		push	{r3, lr}
  33              		.cfi_def_cfa_offset 8
  34              		.cfi_offset 3, -8
  35              		.cfi_offset 14, -4
  17:PIDTest.c     ****     
  18:PIDTest.c     ****     UART_1_Start();
  36              		.loc 1 18 0
  37 0002 FFF7FEFF 		bl	UART_1_Start
  38              	.LVL0:
  19:PIDTest.c     ****     isr_uart_rx_StartEx(UART_HANDLER);
ARM GAS  C:\Users\andre\AppData\Local\Temp\ccdDbEn7.s 			page 2


  39              		.loc 1 19 0
  40 0006 0248     		ldr	r0, .L3
  41 0008 FFF7FEFF 		bl	isr_uart_rx_StartEx
  42              	.LVL1:
  43 000c 08BD     		pop	{r3, pc}
  44              	.L4:
  45 000e 00BF     		.align	2
  46              	.L3:
  47 0010 00000000 		.word	UART_HANDLER
  48              		.cfi_endproc
  49              	.LFE63:
  50              		.size	Testinit, .-Testinit
  51              		.section	.text.ISR_UART_rx_handler,"ax",%progbits
  52              		.align	2
  53              		.global	ISR_UART_rx_handler
  54              		.thumb
  55              		.thumb_func
  56              		.type	ISR_UART_rx_handler, %function
  57              	ISR_UART_rx_handler:
  58              	.LFB64:
  20:PIDTest.c     ****     
  21:PIDTest.c     **** }
  22:PIDTest.c     **** CY_ISR(ISR_UART_rx_handler)
  23:PIDTest.c     **** {
  59              		.loc 1 23 0
  60              		.cfi_startproc
  61              		@ args = 0, pretend = 0, frame = 0
  62              		@ frame_needed = 0, uses_anonymous_args = 0
  63 0000 38B5     		push	{r3, r4, r5, lr}
  64              		.cfi_def_cfa_offset 16
  65              		.cfi_offset 3, -16
  66              		.cfi_offset 4, -12
  67              		.cfi_offset 5, -8
  68              		.cfi_offset 14, -4
  24:PIDTest.c     ****     uint8_t bytesToRead = UART_1_GetRxBufferSize();
  69              		.loc 1 24 0
  70 0002 FFF7FEFF 		bl	UART_1_GetRxBufferSize
  71              	.LVL2:
  72 0006 0446     		mov	r4, r0
  73              	.LVL3:
  25:PIDTest.c     ****     while (bytesToRead > 0)
  74              		.loc 1 25 0
  75 0008 09E0     		b	.L6
  76              	.L7:
  77              	.LBB2:
  26:PIDTest.c     ****     {
  27:PIDTest.c     ****         uint8_t byteReceived = UART_1_ReadRxData();
  78              		.loc 1 27 0
  79 000a FFF7FEFF 		bl	UART_1_ReadRxData
  80              	.LVL4:
  81 000e 0546     		mov	r5, r0
  82              	.LVL5:
  28:PIDTest.c     ****         UART_1_WriteTxData(byteReceived); // echo back
  83              		.loc 1 28 0
  84 0010 FFF7FEFF 		bl	UART_1_WriteTxData
  85              	.LVL6:
  29:PIDTest.c     ****         
ARM GAS  C:\Users\andre\AppData\Local\Temp\ccdDbEn7.s 			page 3


  30:PIDTest.c     ****         handleByteReceived(byteReceived);
  86              		.loc 1 30 0
  87 0014 2846     		mov	r0, r5
  88 0016 FFF7FEFF 		bl	handleByteReceived
  89              	.LVL7:
  31:PIDTest.c     ****         
  32:PIDTest.c     ****         bytesToRead--;
  90              		.loc 1 32 0
  91 001a 013C     		subs	r4, r4, #1
  92              	.LVL8:
  93 001c E4B2     		uxtb	r4, r4
  94              	.LVL9:
  95              	.L6:
  96              	.LBE2:
  25:PIDTest.c     ****     {
  97              		.loc 1 25 0
  98 001e 002C     		cmp	r4, #0
  99 0020 F3D1     		bne	.L7
  33:PIDTest.c     ****     }
  34:PIDTest.c     **** }
 100              		.loc 1 34 0
 101 0022 38BD     		pop	{r3, r4, r5, pc}
 102              		.cfi_endproc
 103              	.LFE64:
 104              		.size	ISR_UART_rx_handler, .-ISR_UART_rx_handler
 105              		.text
 106              	.Letext0:
 107              		.file 2 "c:\\program files (x86)\\cypress\\psoc creator\\4.4\\psoc creator\\import\\gnu\\arm\\5.4.
 108              		.file 3 "c:\\program files (x86)\\cypress\\psoc creator\\4.4\\psoc creator\\import\\gnu\\arm\\5.4.
 109              		.file 4 "Generated_Source\\PSoC5/UART_1.h"
 110              		.file 5 "Generated_Source\\PSoC5/isr_uart_rx.h"
 111              		.file 6 "Generated_Source\\PSoC5/core_cm3.h"