ARM GAS  C:\Users\degn\AppData\Local\Temp\ccFJuEuV.s 			page 1


   1              		.syntax unified
   2              		.cpu cortex-m3
   3              		.fpu softvfp
   4              		.eabi_attribute 20, 1
   5              		.eabi_attribute 21, 1
   6              		.eabi_attribute 23, 3
   7              		.eabi_attribute 24, 1
   8              		.eabi_attribute 25, 1
   9              		.eabi_attribute 26, 1
  10              		.eabi_attribute 30, 1
  11              		.eabi_attribute 34, 1
  12              		.eabi_attribute 18, 4
  13              		.thumb
  14              		.syntax unified
  15              		.file	"interface.c"
  16              		.text
  17              	.Ltext0:
  18              		.cfi_sections	.debug_frame
  19              		.section	.text.ISR_gradient_handler,"ax",%progbits
  20              		.align	2
  21              		.global	ISR_gradient_handler
  22              		.thumb
  23              		.thumb_func
  24              		.type	ISR_gradient_handler, %function
  25              	ISR_gradient_handler:
  26              	.LFB64:
  27              		.file 1 "interface.c"
   1:interface.c   **** #include "project.h"
   2:interface.c   **** 
   3:interface.c   **** #include "interface.h"
   4:interface.c   **** 
   5:interface.c   **** // Global Variels.
   6:interface.c   **** int16_t convertedResult = 0;
   7:interface.c   **** int toggle = 3;
   8:interface.c   **** int deg = 0;
   9:interface.c   **** char LCDbuffer[20];
  10:interface.c   **** int block = 0;
  11:interface.c   **** char tempbuffer[20];
  12:interface.c   **** int pass = 1;
  13:interface.c   **** int gradientShift = 0;
  14:interface.c   **** int gradientCount = 0;
  15:interface.c   **** 
  16:interface.c   **** // Define constants
  17:interface.c   **** #define adc_min 30   // ADC value corresponding to -41 degrees
  18:interface.c   **** #define adc_max 4050 // ADC value corresponding to +41 degrees
  19:interface.c   **** #define deg_min -35  // Minimum degrees
  20:interface.c   **** #define deg_max 35   // Maximum degrees
  21:interface.c   **** 
  22:interface.c   **** enum symbol
  23:interface.c   **** {
  24:interface.c   ****     degree = 0,
  25:interface.c   ****     lock,
  26:interface.c   ****     undefined,
  27:interface.c   ****     unlock
  28:interface.c   **** };
  29:interface.c   **** 
  30:interface.c   **** CY_ISR(ISR_gradient_handler)
ARM GAS  C:\Users\degn\AppData\Local\Temp\ccFJuEuV.s 			page 2


  31:interface.c   **** {
  28              		.loc 1 31 0
  29              		.cfi_startproc
  30              		@ args = 0, pretend = 0, frame = 0
  31              		@ frame_needed = 0, uses_anonymous_args = 0
  32              		@ link register save eliminated.
  32:interface.c   ****     if (0 == gradientShift)
  33              		.loc 1 32 0
  34 0000 0C4B     		ldr	r3, .L4
  35 0002 1B68     		ldr	r3, [r3]
  36 0004 A3B1     		cbz	r3, .L1
  33:interface.c   ****     {
  34:interface.c   ****         return;
  35:interface.c   ****     }
  36:interface.c   ****     else if (-1 == gradientShift)
  37              		.loc 1 36 0
  38 0006 B3F1FF3F 		cmp	r3, #-1
  39 000a 08D1     		bne	.L3
  37:interface.c   ****     {
  38:interface.c   ****         if (-40 <= gradientCount)
  40              		.loc 1 38 0
  41 000c 094B     		ldr	r3, .L4
  42 000e 5B68     		ldr	r3, [r3, #4]
  43 0010 13F1280F 		cmn	r3, #40
  44 0014 0CDB     		blt	.L1
  39:interface.c   ****         {
  40:interface.c   ****             gradientCount = gradientCount - 1;
  45              		.loc 1 40 0
  46 0016 013B     		subs	r3, r3, #1
  47 0018 064A     		ldr	r2, .L4
  48 001a 5360     		str	r3, [r2, #4]
  49 001c 7047     		bx	lr
  50              	.L3:
  41:interface.c   ****         }
  42:interface.c   ****     }
  43:interface.c   ****     else if (1 == gradientShift)
  51              		.loc 1 43 0
  52 001e 012B     		cmp	r3, #1
  53 0020 06D1     		bne	.L1
  44:interface.c   ****     {
  45:interface.c   ****         if (40 >= gradientCount)
  54              		.loc 1 45 0
  55 0022 044B     		ldr	r3, .L4
  56 0024 5B68     		ldr	r3, [r3, #4]
  57 0026 282B     		cmp	r3, #40
  58 0028 02DC     		bgt	.L1
  46:interface.c   ****         {
  47:interface.c   ****             gradientCount = gradientCount + 1;
  59              		.loc 1 47 0
  60 002a 0133     		adds	r3, r3, #1
  61 002c 014A     		ldr	r2, .L4
  62 002e 5360     		str	r3, [r2, #4]
  63              	.L1:
  64 0030 7047     		bx	lr
  65              	.L5:
  66 0032 00BF     		.align	2
  67              	.L4:
ARM GAS  C:\Users\degn\AppData\Local\Temp\ccFJuEuV.s 			page 3


  68 0034 00000000 		.word	.LANCHOR0
  69              		.cfi_endproc
  70              	.LFE64:
  71              		.size	ISR_gradient_handler, .-ISR_gradient_handler
  72              		.section	.text.ISR_toggle_handler,"ax",%progbits
  73              		.align	2
  74              		.global	ISR_toggle_handler
  75              		.thumb
  76              		.thumb_func
  77              		.type	ISR_toggle_handler, %function
  78              	ISR_toggle_handler:
  79              	.LFB65:
  48:interface.c   ****         }
  49:interface.c   ****     }
  50:interface.c   **** }
  51:interface.c   **** 
  52:interface.c   **** CY_ISR(ISR_toggle_handler)
  53:interface.c   **** {
  80              		.loc 1 53 0
  81              		.cfi_startproc
  82              		@ args = 0, pretend = 0, frame = 0
  83              		@ frame_needed = 0, uses_anonymous_args = 0
  84              		@ link register save eliminated.
  54:interface.c   ****     deg = convertedResult;
  85              		.loc 1 54 0
  86 0000 0B4B     		ldr	r3, .L10
  87 0002 B3F90C20 		ldrsh	r2, [r3, #12]
  88 0006 9A60     		str	r2, [r3, #8]
  55:interface.c   ****     convertedResult = deg;
  56:interface.c   ****     if (1 == toggle)
  89              		.loc 1 56 0
  90 0008 0A4B     		ldr	r3, .L10+4
  91 000a 1B68     		ldr	r3, [r3]
  92 000c 012B     		cmp	r3, #1
  93 000e 03D1     		bne	.L7
  57:interface.c   ****     {
  58:interface.c   ****         toggle = 2;
  94              		.loc 1 58 0
  95 0010 0222     		movs	r2, #2
  96 0012 084B     		ldr	r3, .L10+4
  97 0014 1A60     		str	r2, [r3]
  98 0016 7047     		bx	lr
  99              	.L7:
  59:interface.c   ****     }
  60:interface.c   ****     else if (2 == toggle)
 100              		.loc 1 60 0
 101 0018 022B     		cmp	r3, #2
 102 001a 03D1     		bne	.L9
  61:interface.c   ****     {
  62:interface.c   ****         toggle = 3;
 103              		.loc 1 62 0
 104 001c 0322     		movs	r2, #3
 105 001e 054B     		ldr	r3, .L10+4
 106 0020 1A60     		str	r2, [r3]
 107 0022 7047     		bx	lr
 108              	.L9:
  63:interface.c   ****     }
ARM GAS  C:\Users\degn\AppData\Local\Temp\ccFJuEuV.s 			page 4


  64:interface.c   ****     else if (3 == toggle)
 109              		.loc 1 64 0
 110 0024 032B     		cmp	r3, #3
 111 0026 02D1     		bne	.L6
  65:interface.c   ****     {
  66:interface.c   ****         toggle = 1;
 112              		.loc 1 66 0
 113 0028 0122     		movs	r2, #1
 114 002a 024B     		ldr	r3, .L10+4
 115 002c 1A60     		str	r2, [r3]
 116              	.L6:
 117 002e 7047     		bx	lr
 118              	.L11:
 119              		.align	2
 120              	.L10:
 121 0030 00000000 		.word	.LANCHOR0
 122 0034 00000000 		.word	.LANCHOR1
 123              		.cfi_endproc
 124              	.LFE65:
 125              		.size	ISR_toggle_handler, .-ISR_toggle_handler
 126              		.section	.text.ISR_motorSwitch_On_handler,"ax",%progbits
 127              		.align	2
 128              		.global	ISR_motorSwitch_On_handler
 129              		.thumb
 130              		.thumb_func
 131              		.type	ISR_motorSwitch_On_handler, %function
 132              	ISR_motorSwitch_On_handler:
 133              	.LFB67:
  67:interface.c   ****     }
  68:interface.c   **** }
  69:interface.c   **** 
  70:interface.c   **** CY_ISR(ISR_print_handler)
  71:interface.c   **** {
  72:interface.c   ****     if (motorSwitch())
  73:interface.c   ****     {
  74:interface.c   ****         if (1 == toggle)
  75:interface.c   ****         {
  76:interface.c   ****             sprintf(LCDbuffer, "%i             ", convertedResult);
  77:interface.c   ****             writeLCD("mode 1", unlock, LCDbuffer, degree);
  78:interface.c   ****         }
  79:interface.c   ****         else if (2 == toggle)
  80:interface.c   ****         {
  81:interface.c   ****             sprintf(LCDbuffer, "%i             ", convertedResult);
  82:interface.c   ****             writeLCD("mode 2", lock, LCDbuffer, degree);
  83:interface.c   ****         }
  84:interface.c   ****         else
  85:interface.c   ****         {
  86:interface.c   ****             sprintf(LCDbuffer, "%i             ", gradientCount);
  87:interface.c   ****             writeLCD("mode 3", lock, LCDbuffer, degree);
  88:interface.c   ****         }  
  89:interface.c   ****     }
  90:interface.c   **** }
  91:interface.c   **** 
  92:interface.c   **** CY_ISR(ISR_motorSwitch_On_handler)
  93:interface.c   **** {
 134              		.loc 1 93 0
 135              		.cfi_startproc
ARM GAS  C:\Users\degn\AppData\Local\Temp\ccFJuEuV.s 			page 5


 136              		@ args = 0, pretend = 0, frame = 0
 137              		@ frame_needed = 0, uses_anonymous_args = 0
 138 0000 08B5     		push	{r3, lr}
 139              		.cfi_def_cfa_offset 8
 140              		.cfi_offset 3, -8
 141              		.cfi_offset 14, -4
  94:interface.c   ****     LCD_ClearDisplay();
 142              		.loc 1 94 0
 143 0002 0120     		movs	r0, #1
 144 0004 FFF7FEFF 		bl	LCD_WriteControl
 145              	.LVL0:
  95:interface.c   ****     LCD_Position(0, 0);
 146              		.loc 1 95 0
 147 0008 0021     		movs	r1, #0
 148 000a 0846     		mov	r0, r1
 149 000c FFF7FEFF 		bl	LCD_Position
 150              	.LVL1:
  96:interface.c   ****     LCD_PrintString("On");
 151              		.loc 1 96 0
 152 0010 0148     		ldr	r0, .L14
 153 0012 FFF7FEFF 		bl	LCD_PrintString
 154              	.LVL2:
 155 0016 08BD     		pop	{r3, pc}
 156              	.L15:
 157              		.align	2
 158              	.L14:
 159 0018 00000000 		.word	.LC0
 160              		.cfi_endproc
 161              	.LFE67:
 162              		.size	ISR_motorSwitch_On_handler, .-ISR_motorSwitch_On_handler
 163              		.section	.text.ISR_motorSwitch_Off_handler,"ax",%progbits
 164              		.align	2
 165              		.global	ISR_motorSwitch_Off_handler
 166              		.thumb
 167              		.thumb_func
 168              		.type	ISR_motorSwitch_Off_handler, %function
 169              	ISR_motorSwitch_Off_handler:
 170              	.LFB68:
  97:interface.c   **** }
  98:interface.c   **** CY_ISR(ISR_motorSwitch_Off_handler)
  99:interface.c   **** {
 171              		.loc 1 99 0
 172              		.cfi_startproc
 173              		@ args = 0, pretend = 0, frame = 0
 174              		@ frame_needed = 0, uses_anonymous_args = 0
 175 0000 08B5     		push	{r3, lr}
 176              		.cfi_def_cfa_offset 8
 177              		.cfi_offset 3, -8
 178              		.cfi_offset 14, -4
 100:interface.c   ****     LCD_ClearDisplay();
 179              		.loc 1 100 0
 180 0002 0120     		movs	r0, #1
 181 0004 FFF7FEFF 		bl	LCD_WriteControl
 182              	.LVL3:
 101:interface.c   ****     LCD_Position(0, 0);
 183              		.loc 1 101 0
 184 0008 0021     		movs	r1, #0
ARM GAS  C:\Users\degn\AppData\Local\Temp\ccFJuEuV.s 			page 6


 185 000a 0846     		mov	r0, r1
 186 000c FFF7FEFF 		bl	LCD_Position
 187              	.LVL4:
 102:interface.c   ****     LCD_PrintString("Off");
 188              		.loc 1 102 0
 189 0010 0148     		ldr	r0, .L18
 190 0012 FFF7FEFF 		bl	LCD_PrintString
 191              	.LVL5:
 192 0016 08BD     		pop	{r3, pc}
 193              	.L19:
 194              		.align	2
 195              	.L18:
 196 0018 04000000 		.word	.LC1
 197              		.cfi_endproc
 198              	.LFE68:
 199              		.size	ISR_motorSwitch_Off_handler, .-ISR_motorSwitch_Off_handler
 200              		.section	.text.Init_LCD,"ax",%progbits
 201              		.align	2
 202              		.global	Init_LCD
 203              		.thumb
 204              		.thumb_func
 205              		.type	Init_LCD, %function
 206              	Init_LCD:
 207              	.LFB70:
 103:interface.c   **** }
 104:interface.c   **** 
 105:interface.c   **** void init_interface()
 106:interface.c   **** {
 107:interface.c   ****     Init_LCD();
 108:interface.c   ****     //Init_ISR();
 109:interface.c   ****     //Init_PWM();
 110:interface.c   ****     Init_ADC();
 111:interface.c   ****     isr_motorSwitch_On_StartEx(ISR_motorSwitch_On_handler);
 112:interface.c   ****     isr_motorSwitch_Off_StartEx(ISR_motorSwitch_Off_handler);
 113:interface.c   **** }
 114:interface.c   **** 
 115:interface.c   **** void Init_LCD()
 116:interface.c   **** {
 208              		.loc 1 116 0
 209              		.cfi_startproc
 210              		@ args = 0, pretend = 0, frame = 0
 211              		@ frame_needed = 0, uses_anonymous_args = 0
 212 0000 08B5     		push	{r3, lr}
 213              		.cfi_def_cfa_offset 8
 214              		.cfi_offset 3, -8
 215              		.cfi_offset 14, -4
 117:interface.c   ****     LCD_ClearDisplay();
 216              		.loc 1 117 0
 217 0002 0120     		movs	r0, #1
 218 0004 FFF7FEFF 		bl	LCD_WriteControl
 219              	.LVL6:
 118:interface.c   ****     LCD_Start();
 220              		.loc 1 118 0
 221 0008 FFF7FEFF 		bl	LCD_Start
 222              	.LVL7:
 119:interface.c   ****     LCD_Position(0, 0);
 223              		.loc 1 119 0
ARM GAS  C:\Users\degn\AppData\Local\Temp\ccFJuEuV.s 			page 7


 224 000c 0021     		movs	r1, #0
 225 000e 0846     		mov	r0, r1
 226 0010 FFF7FEFF 		bl	LCD_Position
 227              	.LVL8:
 120:interface.c   ****     LCD_PrintString("Starting");
 228              		.loc 1 120 0
 229 0014 0548     		ldr	r0, .L22
 230 0016 FFF7FEFF 		bl	LCD_PrintString
 231              	.LVL9:
 121:interface.c   ****     LCD_Position(1, 0);
 232              		.loc 1 121 0
 233 001a 0021     		movs	r1, #0
 234 001c 0120     		movs	r0, #1
 235 001e FFF7FEFF 		bl	LCD_Position
 236              	.LVL10:
 122:interface.c   ****     LCD_PrintString("Dron-A Lisa");
 237              		.loc 1 122 0
 238 0022 0348     		ldr	r0, .L22+4
 239 0024 FFF7FEFF 		bl	LCD_PrintString
 240              	.LVL11:
 241 0028 08BD     		pop	{r3, pc}
 242              	.L23:
 243 002a 00BF     		.align	2
 244              	.L22:
 245 002c 08000000 		.word	.LC2
 246 0030 14000000 		.word	.LC3
 247              		.cfi_endproc
 248              	.LFE70:
 249              		.size	Init_LCD, .-Init_LCD
 250              		.section	.text.Init_ADC,"ax",%progbits
 251              		.align	2
 252              		.global	Init_ADC
 253              		.thumb
 254              		.thumb_func
 255              		.type	Init_ADC, %function
 256              	Init_ADC:
 257              	.LFB71:
 123:interface.c   **** }
 124:interface.c   **** 
 125:interface.c   **** void Init_ADC()
 126:interface.c   **** {
 258              		.loc 1 126 0
 259              		.cfi_startproc
 260              		@ args = 0, pretend = 0, frame = 0
 261              		@ frame_needed = 0, uses_anonymous_args = 0
 262 0000 08B5     		push	{r3, lr}
 263              		.cfi_def_cfa_offset 8
 264              		.cfi_offset 3, -8
 265              		.cfi_offset 14, -4
 127:interface.c   ****     ADC_SAR_1_Start();
 266              		.loc 1 127 0
 267 0002 FFF7FEFF 		bl	ADC_SAR_1_Start
 268              	.LVL12:
 128:interface.c   ****     ADC_SAR_1_StartConvert();
 269              		.loc 1 128 0
 270 0006 FFF7FEFF 		bl	ADC_SAR_1_StartConvert
 271              	.LVL13:
ARM GAS  C:\Users\degn\AppData\Local\Temp\ccFJuEuV.s 			page 8


 272 000a 08BD     		pop	{r3, pc}
 273              		.cfi_endproc
 274              	.LFE71:
 275              		.size	Init_ADC, .-Init_ADC
 276              		.section	.text.init_interface,"ax",%progbits
 277              		.align	2
 278              		.global	init_interface
 279              		.thumb
 280              		.thumb_func
 281              		.type	init_interface, %function
 282              	init_interface:
 283              	.LFB69:
 106:interface.c   ****     Init_LCD();
 284              		.loc 1 106 0
 285              		.cfi_startproc
 286              		@ args = 0, pretend = 0, frame = 0
 287              		@ frame_needed = 0, uses_anonymous_args = 0
 288 0000 08B5     		push	{r3, lr}
 289              		.cfi_def_cfa_offset 8
 290              		.cfi_offset 3, -8
 291              		.cfi_offset 14, -4
 107:interface.c   ****     //Init_ISR();
 292              		.loc 1 107 0
 293 0002 FFF7FEFF 		bl	Init_LCD
 294              	.LVL14:
 110:interface.c   ****     isr_motorSwitch_On_StartEx(ISR_motorSwitch_On_handler);
 295              		.loc 1 110 0
 296 0006 FFF7FEFF 		bl	Init_ADC
 297              	.LVL15:
 111:interface.c   ****     isr_motorSwitch_Off_StartEx(ISR_motorSwitch_Off_handler);
 298              		.loc 1 111 0
 299 000a 0348     		ldr	r0, .L28
 300 000c FFF7FEFF 		bl	isr_motorSwitch_On_StartEx
 301              	.LVL16:
 112:interface.c   **** }
 302              		.loc 1 112 0
 303 0010 0248     		ldr	r0, .L28+4
 304 0012 FFF7FEFF 		bl	isr_motorSwitch_Off_StartEx
 305              	.LVL17:
 306 0016 08BD     		pop	{r3, pc}
 307              	.L29:
 308              		.align	2
 309              	.L28:
 310 0018 00000000 		.word	ISR_motorSwitch_On_handler
 311 001c 00000000 		.word	ISR_motorSwitch_Off_handler
 312              		.cfi_endproc
 313              	.LFE69:
 314              		.size	init_interface, .-init_interface
 315              		.section	.text.Init_PWM,"ax",%progbits
 316              		.align	2
 317              		.global	Init_PWM
 318              		.thumb
 319              		.thumb_func
 320              		.type	Init_PWM, %function
 321              	Init_PWM:
 322              	.LFB72:
 129:interface.c   **** }
ARM GAS  C:\Users\degn\AppData\Local\Temp\ccFJuEuV.s 			page 9


 130:interface.c   **** 
 131:interface.c   **** void Init_PWM()
 132:interface.c   **** {
 323              		.loc 1 132 0
 324              		.cfi_startproc
 325              		@ args = 0, pretend = 0, frame = 0
 326              		@ frame_needed = 0, uses_anonymous_args = 0
 327 0000 08B5     		push	{r3, lr}
 328              		.cfi_def_cfa_offset 8
 329              		.cfi_offset 3, -8
 330              		.cfi_offset 14, -4
 133:interface.c   ****     PWM_1_Start();
 331              		.loc 1 133 0
 332 0002 FFF7FEFF 		bl	PWM_1_Start
 333              	.LVL18:
 134:interface.c   ****     PWM_2_Start();
 334              		.loc 1 134 0
 335 0006 FFF7FEFF 		bl	PWM_2_Start
 336              	.LVL19:
 337 000a 08BD     		pop	{r3, pc}
 338              		.cfi_endproc
 339              	.LFE72:
 340              		.size	Init_PWM, .-Init_PWM
 341              		.section	.text.Init_ISR,"ax",%progbits
 342              		.align	2
 343              		.global	Init_ISR
 344              		.thumb
 345              		.thumb_func
 346              		.type	Init_ISR, %function
 347              	Init_ISR:
 348              	.LFB73:
 135:interface.c   **** }
 136:interface.c   **** 
 137:interface.c   **** void Init_ISR()
 138:interface.c   **** {
 349              		.loc 1 138 0
 350              		.cfi_startproc
 351              		@ args = 0, pretend = 0, frame = 0
 352              		@ frame_needed = 0, uses_anonymous_args = 0
 353 0000 08B5     		push	{r3, lr}
 354              		.cfi_def_cfa_offset 8
 355              		.cfi_offset 3, -8
 356              		.cfi_offset 14, -4
 139:interface.c   ****     isr_toggle_StartEx(ISR_toggle_handler);
 357              		.loc 1 139 0
 358 0002 0548     		ldr	r0, .L34
 359 0004 FFF7FEFF 		bl	isr_toggle_StartEx
 360              	.LVL20:
 140:interface.c   ****     isr_print_StartEx(ISR_print_handler);
 361              		.loc 1 140 0
 362 0008 0448     		ldr	r0, .L34+4
 363 000a FFF7FEFF 		bl	isr_print_StartEx
 364              	.LVL21:
 141:interface.c   ****     isr_gradient_StartEx(ISR_gradient_handler);
 365              		.loc 1 141 0
 366 000e 0448     		ldr	r0, .L34+8
 367 0010 FFF7FEFF 		bl	isr_gradient_StartEx
ARM GAS  C:\Users\degn\AppData\Local\Temp\ccFJuEuV.s 			page 10


 368              	.LVL22:
 369 0014 08BD     		pop	{r3, pc}
 370              	.L35:
 371 0016 00BF     		.align	2
 372              	.L34:
 373 0018 00000000 		.word	ISR_toggle_handler
 374 001c 00000000 		.word	ISR_print_handler
 375 0020 00000000 		.word	ISR_gradient_handler
 376              		.cfi_endproc
 377              	.LFE73:
 378              		.size	Init_ISR, .-Init_ISR
 379              		.section	.text.writeLCD,"ax",%progbits
 380              		.align	2
 381              		.global	writeLCD
 382              		.thumb
 383              		.thumb_func
 384              		.type	writeLCD, %function
 385              	writeLCD:
 386              	.LFB74:
 142:interface.c   **** }
 143:interface.c   **** 
 144:interface.c   **** void writeLCD(char *top, int endTopChar, char *buttom, int endButtomChar)
 145:interface.c   **** {
 387              		.loc 1 145 0
 388              		.cfi_startproc
 389              		@ args = 0, pretend = 0, frame = 0
 390              		@ frame_needed = 0, uses_anonymous_args = 0
 391              	.LVL23:
 392 0000 F8B5     		push	{r3, r4, r5, r6, r7, lr}
 393              		.cfi_def_cfa_offset 24
 394              		.cfi_offset 3, -24
 395              		.cfi_offset 4, -20
 396              		.cfi_offset 5, -16
 397              		.cfi_offset 6, -12
 398              		.cfi_offset 7, -8
 399              		.cfi_offset 14, -4
 400 0002 0746     		mov	r7, r0
 401 0004 0E46     		mov	r6, r1
 402 0006 1546     		mov	r5, r2
 403 0008 1C46     		mov	r4, r3
 146:interface.c   ****     LCD_ClearDisplay();
 404              		.loc 1 146 0
 405 000a 0120     		movs	r0, #1
 406              	.LVL24:
 407 000c FFF7FEFF 		bl	LCD_WriteControl
 408              	.LVL25:
 147:interface.c   ****     LCD_Position(0, 0);
 409              		.loc 1 147 0
 410 0010 0021     		movs	r1, #0
 411 0012 0846     		mov	r0, r1
 412 0014 FFF7FEFF 		bl	LCD_Position
 413              	.LVL26:
 148:interface.c   ****     LCD_PrintString(top);
 414              		.loc 1 148 0
 415 0018 3846     		mov	r0, r7
 416 001a FFF7FEFF 		bl	LCD_PrintString
 417              	.LVL27:
ARM GAS  C:\Users\degn\AppData\Local\Temp\ccFJuEuV.s 			page 11


 149:interface.c   ****     LCD_Position(0, 15);
 418              		.loc 1 149 0
 419 001e 0F21     		movs	r1, #15
 420 0020 0020     		movs	r0, #0
 421 0022 FFF7FEFF 		bl	LCD_Position
 422              	.LVL28:
 150:interface.c   ****     LCD_PutChar(endTopChar);
 423              		.loc 1 150 0
 424 0026 F0B2     		uxtb	r0, r6
 425 0028 FFF7FEFF 		bl	LCD_PutChar
 426              	.LVL29:
 151:interface.c   ****     LCD_Position(1, 0);
 427              		.loc 1 151 0
 428 002c 0021     		movs	r1, #0
 429 002e 0120     		movs	r0, #1
 430 0030 FFF7FEFF 		bl	LCD_Position
 431              	.LVL30:
 152:interface.c   ****     LCD_PrintString(buttom);
 432              		.loc 1 152 0
 433 0034 2846     		mov	r0, r5
 434 0036 FFF7FEFF 		bl	LCD_PrintString
 435              	.LVL31:
 153:interface.c   ****     LCD_Position(1, 15);
 436              		.loc 1 153 0
 437 003a 0F21     		movs	r1, #15
 438 003c 0120     		movs	r0, #1
 439 003e FFF7FEFF 		bl	LCD_Position
 440              	.LVL32:
 154:interface.c   ****     LCD_PutChar(endButtomChar);
 441              		.loc 1 154 0
 442 0042 E0B2     		uxtb	r0, r4
 443 0044 FFF7FEFF 		bl	LCD_PutChar
 444              	.LVL33:
 445 0048 F8BD     		pop	{r3, r4, r5, r6, r7, pc}
 446              		.cfi_endproc
 447              	.LFE74:
 448              		.size	writeLCD, .-writeLCD
 449              		.global	__aeabi_f2d
 450 004a 00BF     		.section	.text.writeLCD2,"ax",%progbits
 451              		.align	2
 452              		.global	writeLCD2
 453              		.thumb
 454              		.thumb_func
 455              		.type	writeLCD2, %function
 456              	writeLCD2:
 457              	.LFB75:
 155:interface.c   **** }
 156:interface.c   **** 
 157:interface.c   **** void writeLCD2(int setpoint, float sensor)
 158:interface.c   **** {
 458              		.loc 1 158 0
 459              		.cfi_startproc
 460              		@ args = 0, pretend = 0, frame = 16
 461              		@ frame_needed = 0, uses_anonymous_args = 0
 462              	.LVL34:
 463 0000 30B5     		push	{r4, r5, lr}
 464              		.cfi_def_cfa_offset 12
ARM GAS  C:\Users\degn\AppData\Local\Temp\ccFJuEuV.s 			page 12


 465              		.cfi_offset 4, -12
 466              		.cfi_offset 5, -8
 467              		.cfi_offset 14, -4
 468 0002 85B0     		sub	sp, sp, #20
 469              		.cfi_def_cfa_offset 32
 470 0004 0546     		mov	r5, r0
 471 0006 0C46     		mov	r4, r1
 159:interface.c   ****     char buff[16];
 160:interface.c   ****     LCD_ClearDisplay();
 472              		.loc 1 160 0
 473 0008 0120     		movs	r0, #1
 474              	.LVL35:
 475 000a FFF7FEFF 		bl	LCD_WriteControl
 476              	.LVL36:
 161:interface.c   ****     sprintf(buff,"Setpoint: %i", setpoint);
 477              		.loc 1 161 0
 478 000e 2A46     		mov	r2, r5
 479 0010 0E49     		ldr	r1, .L40
 480 0012 6846     		mov	r0, sp
 481 0014 FFF7FEFF 		bl	sprintf
 482              	.LVL37:
 162:interface.c   ****     LCD_Position(0, 0);
 483              		.loc 1 162 0
 484 0018 0021     		movs	r1, #0
 485 001a 0846     		mov	r0, r1
 486 001c FFF7FEFF 		bl	LCD_Position
 487              	.LVL38:
 163:interface.c   ****     LCD_PrintString(buff);
 488              		.loc 1 163 0
 489 0020 6846     		mov	r0, sp
 490 0022 FFF7FEFF 		bl	LCD_PrintString
 491              	.LVL39:
 164:interface.c   ****     sprintf(buff,"Sensor: %.2f", sensor);
 492              		.loc 1 164 0
 493 0026 2046     		mov	r0, r4
 494 0028 FFF7FEFF 		bl	__aeabi_f2d
 495              	.LVL40:
 496 002c 0246     		mov	r2, r0
 497 002e 0B46     		mov	r3, r1
 498 0030 0749     		ldr	r1, .L40+4
 499 0032 6846     		mov	r0, sp
 500 0034 FFF7FEFF 		bl	sprintf
 501              	.LVL41:
 165:interface.c   ****     LCD_Position(1, 0);
 502              		.loc 1 165 0
 503 0038 0021     		movs	r1, #0
 504 003a 0120     		movs	r0, #1
 505 003c FFF7FEFF 		bl	LCD_Position
 506              	.LVL42:
 166:interface.c   ****     LCD_PrintString(buff);
 507              		.loc 1 166 0
 508 0040 6846     		mov	r0, sp
 509 0042 FFF7FEFF 		bl	LCD_PrintString
 510              	.LVL43:
 167:interface.c   **** }
 511              		.loc 1 167 0
 512 0046 05B0     		add	sp, sp, #20
ARM GAS  C:\Users\degn\AppData\Local\Temp\ccFJuEuV.s 			page 13


 513              		.cfi_def_cfa_offset 12
 514              		@ sp needed
 515 0048 30BD     		pop	{r4, r5, pc}
 516              	.LVL44:
 517              	.L41:
 518 004a 00BF     		.align	2
 519              	.L40:
 520 004c 20000000 		.word	.LC4
 521 0050 30000000 		.word	.LC5
 522              		.cfi_endproc
 523              	.LFE75:
 524              		.size	writeLCD2, .-writeLCD2
 525              		.global	__aeabi_i2f
 526              		.global	__aeabi_fsub
 527              		.global	__aeabi_fadd
 528              		.global	__aeabi_fdiv
 529              		.global	__aeabi_f2iz
 530              		.section	.text.FIRMovingAverage,"ax",%progbits
 531              		.align	2
 532              		.global	FIRMovingAverage
 533              		.thumb
 534              		.thumb_func
 535              		.type	FIRMovingAverage, %function
 536              	FIRMovingAverage:
 537              	.LFB76:
 168:interface.c   **** #define WINDOW_SIZE 5    // Antallet af værdier i glidende gennemsnit
 169:interface.c   **** static int values[WINDOW_SIZE] = {0};  // Array til at gemme de seneste 20 værdier
 170:interface.c   **** static int i = 0;                  // Index for den aktuelle position i arrayet
 171:interface.c   **** static float sum = 0;                  // Summen af de 20 værdier
 172:interface.c   **** static int c = 0;                  // Antal værdier, der er blevet tilføjet
 173:interface.c   **** 
 174:interface.c   **** int FIRMovingAverage(int new_value) 
 175:interface.c   **** {
 538              		.loc 1 175 0
 539              		.cfi_startproc
 540              		@ args = 0, pretend = 0, frame = 0
 541              		@ frame_needed = 0, uses_anonymous_args = 0
 542              	.LVL45:
 543 0000 2DE9F041 		push	{r4, r5, r6, r7, r8, lr}
 544              		.cfi_def_cfa_offset 24
 545              		.cfi_offset 4, -24
 546              		.cfi_offset 5, -20
 547              		.cfi_offset 6, -16
 548              		.cfi_offset 7, -12
 549              		.cfi_offset 8, -8
 550              		.cfi_offset 14, -4
 551 0004 8046     		mov	r8, r0
 176:interface.c   ****     // Opdater summen ved at trække den gamle værdi fra og tilføje den nye
 177:interface.c   ****     sum -= values[i];
 552              		.loc 1 177 0
 553 0006 194C     		ldr	r4, .L45
 554 0008 2569     		ldr	r5, [r4, #16]
 555 000a 04EB8507 		add	r7, r4, r5, lsl #2
 556 000e 7869     		ldr	r0, [r7, #20]
 557              	.LVL46:
 558 0010 FFF7FEFF 		bl	__aeabi_i2f
 559              	.LVL47:
ARM GAS  C:\Users\degn\AppData\Local\Temp\ccFJuEuV.s 			page 14


 560 0014 0146     		mov	r1, r0
 561 0016 A06A     		ldr	r0, [r4, #40]	@ float
 562 0018 FFF7FEFF 		bl	__aeabi_fsub
 563              	.LVL48:
 564 001c 0646     		mov	r6, r0
 178:interface.c   ****     sum += new_value;
 565              		.loc 1 178 0
 566 001e 4046     		mov	r0, r8
 567 0020 FFF7FEFF 		bl	__aeabi_i2f
 568              	.LVL49:
 569 0024 3146     		mov	r1, r6
 570 0026 FFF7FEFF 		bl	__aeabi_fadd
 571              	.LVL50:
 572 002a 0646     		mov	r6, r0
 573 002c A062     		str	r0, [r4, #40]	@ float
 179:interface.c   **** 
 180:interface.c   ****     // Opdater arrayet med den nye værdi
 181:interface.c   ****     values[i] = new_value;
 574              		.loc 1 181 0
 575 002e C7F81480 		str	r8, [r7, #20]
 182:interface.c   **** 
 183:interface.c   ****     // Flyt til næste position i arrayet, og wrap rundt efter WINDOW_SIZE
 184:interface.c   ****     i = (i + 1) % WINDOW_SIZE;
 576              		.loc 1 184 0
 577 0032 6A1C     		adds	r2, r5, #1
 578 0034 0E4B     		ldr	r3, .L45+4
 579 0036 83FB0231 		smull	r3, r1, r3, r2
 580 003a D317     		asrs	r3, r2, #31
 581 003c C3EB6103 		rsb	r3, r3, r1, asr #1
 582 0040 03EB8303 		add	r3, r3, r3, lsl #2
 583 0044 D31A     		subs	r3, r2, r3
 584 0046 2361     		str	r3, [r4, #16]
 185:interface.c   **** 
 186:interface.c   ****     // Tæl op til WINDOW_SIZE for at sikre korrekt gennemsnit på de første kald
 187:interface.c   ****     if (c < WINDOW_SIZE) {
 585              		.loc 1 187 0
 586 0048 E36A     		ldr	r3, [r4, #44]
 587 004a 042B     		cmp	r3, #4
 588 004c 01DC     		bgt	.L43
 188:interface.c   ****         c++;
 589              		.loc 1 188 0
 590 004e 0133     		adds	r3, r3, #1
 591 0050 E362     		str	r3, [r4, #44]
 592              	.L43:
 189:interface.c   ****     }
 190:interface.c   **** 
 191:interface.c   ****     // Returner gennemsnittet
 192:interface.c   ****     return sum / c;
 593              		.loc 1 192 0
 594 0052 064B     		ldr	r3, .L45
 595 0054 D86A     		ldr	r0, [r3, #44]
 596 0056 FFF7FEFF 		bl	__aeabi_i2f
 597              	.LVL51:
 598 005a 0146     		mov	r1, r0
 599 005c 3046     		mov	r0, r6
 600 005e FFF7FEFF 		bl	__aeabi_fdiv
 601              	.LVL52:
ARM GAS  C:\Users\degn\AppData\Local\Temp\ccFJuEuV.s 			page 15


 602 0062 FFF7FEFF 		bl	__aeabi_f2iz
 603              	.LVL53:
 193:interface.c   **** }
 604              		.loc 1 193 0
 605 0066 BDE8F081 		pop	{r4, r5, r6, r7, r8, pc}
 606              	.LVL54:
 607              	.L46:
 608 006a 00BF     		.align	2
 609              	.L45:
 610 006c 00000000 		.word	.LANCHOR0
 611 0070 67666666 		.word	1717986919
 612              		.cfi_endproc
 613              	.LFE76:
 614              		.size	FIRMovingAverage, .-FIRMovingAverage
 615              		.section	.text.mode_2,"ax",%progbits
 616              		.align	2
 617              		.global	mode_2
 618              		.thumb
 619              		.thumb_func
 620              		.type	mode_2, %function
 621              	mode_2:
 622              	.LFB79:
 194:interface.c   **** 
 195:interface.c   **** int setpoint()
 196:interface.c   **** {
 197:interface.c   ****     //return adcToDegrees( FIRMovingAverage( ADC_SAR_1_GetResult16() ) );
 198:interface.c   ****     return adcToDegrees( ADC_SAR_1_GetResult16() );
 199:interface.c   **** }
 200:interface.c   **** 
 201:interface.c   **** int mode_1()
 202:interface.c   **** {
 203:interface.c   ****     // average
 204:interface.c   ****     int loops = 10;
 205:interface.c   ****     long sum = 0;
 206:interface.c   ****     for (int i = 0; i < loops; i++)
 207:interface.c   ****     {
 208:interface.c   ****         sum = sum + ADC_SAR_1_GetResult16();
 209:interface.c   ****     }
 210:interface.c   ****     sum = sum / loops;
 211:interface.c   ****     convertedResult = adcToDegrees(sum);
 212:interface.c   ****     return convertedResult;
 213:interface.c   **** }
 214:interface.c   **** 
 215:interface.c   **** int mode_2()
 216:interface.c   **** {
 623              		.loc 1 216 0
 624              		.cfi_startproc
 625              		@ args = 0, pretend = 0, frame = 0
 626              		@ frame_needed = 0, uses_anonymous_args = 0
 627 0000 08B5     		push	{r3, lr}
 628              		.cfi_def_cfa_offset 8
 629              		.cfi_offset 3, -8
 630              		.cfi_offset 14, -4
 631              	.LVL55:
 217:interface.c   ****     int jump = 1;
 218:interface.c   ****     if (ADC_SAR_1_GetResult16() > 2200 && ADC_SAR_1_GetResult16() < 3400) // middle
 632              		.loc 1 218 0
ARM GAS  C:\Users\degn\AppData\Local\Temp\ccFJuEuV.s 			page 16


 633 0002 FFF7FEFF 		bl	ADC_SAR_1_GetResult16
 634              	.LVL56:
 635 0006 40F69803 		movw	r3, #2200
 636 000a 9842     		cmp	r0, r3
 637 000c 0ADD     		ble	.L48
 638              		.loc 1 218 0 is_stmt 0 discriminator 1
 639 000e FFF7FEFF 		bl	ADC_SAR_1_GetResult16
 640              	.LVL57:
 641 0012 40F64753 		movw	r3, #3399
 642 0016 9842     		cmp	r0, r3
 643 0018 04DC     		bgt	.L48
 219:interface.c   ****     {
 220:interface.c   ****         jump = 1;
 221:interface.c   ****         deg = deg + jump;
 644              		.loc 1 221 0 is_stmt 1
 645 001a 1F4A     		ldr	r2, .L55
 646 001c 9368     		ldr	r3, [r2, #8]
 647 001e 0133     		adds	r3, r3, #1
 648 0020 9360     		str	r3, [r2, #8]
 649 0022 24E0     		b	.L49
 650              	.L48:
 222:interface.c   ****     }
 223:interface.c   ****     else if (ADC_SAR_1_GetResult16() < 1900 && ADC_SAR_1_GetResult16() > 600) // middle
 651              		.loc 1 223 0
 652 0024 FFF7FEFF 		bl	ADC_SAR_1_GetResult16
 653              	.LVL58:
 654 0028 40F26B73 		movw	r3, #1899
 655 002c 9842     		cmp	r0, r3
 656 002e 09DC     		bgt	.L50
 657              		.loc 1 223 0 is_stmt 0 discriminator 1
 658 0030 FFF7FEFF 		bl	ADC_SAR_1_GetResult16
 659              	.LVL59:
 660 0034 B0F5167F 		cmp	r0, #600
 661 0038 04DD     		ble	.L50
 224:interface.c   ****     {
 225:interface.c   ****         jump = 1;
 226:interface.c   ****         deg = deg - jump;
 662              		.loc 1 226 0 is_stmt 1
 663 003a 174A     		ldr	r2, .L55
 664 003c 9368     		ldr	r3, [r2, #8]
 665 003e 013B     		subs	r3, r3, #1
 666 0040 9360     		str	r3, [r2, #8]
 667 0042 14E0     		b	.L49
 668              	.L50:
 227:interface.c   ****     }
 228:interface.c   ****     else if (ADC_SAR_1_GetResult16() > 3401) // edge
 669              		.loc 1 228 0
 670 0044 FFF7FEFF 		bl	ADC_SAR_1_GetResult16
 671              	.LVL60:
 672 0048 40F64953 		movw	r3, #3401
 673 004c 9842     		cmp	r0, r3
 674 004e 04DD     		ble	.L51
 675              	.LVL61:
 229:interface.c   ****     {
 230:interface.c   ****         jump = 2;
 231:interface.c   ****         deg = deg + jump;
 676              		.loc 1 231 0
ARM GAS  C:\Users\degn\AppData\Local\Temp\ccFJuEuV.s 			page 17


 677 0050 114A     		ldr	r2, .L55
 678 0052 9368     		ldr	r3, [r2, #8]
 679 0054 0233     		adds	r3, r3, #2
 680 0056 9360     		str	r3, [r2, #8]
 681 0058 09E0     		b	.L49
 682              	.LVL62:
 683              	.L51:
 232:interface.c   ****     }
 233:interface.c   ****     else if (ADC_SAR_1_GetResult16() < 599) // edge
 684              		.loc 1 233 0
 685 005a FFF7FEFF 		bl	ADC_SAR_1_GetResult16
 686              	.LVL63:
 687 005e 40F25623 		movw	r3, #598
 688 0062 9842     		cmp	r0, r3
 689 0064 03DC     		bgt	.L49
 690              	.LVL64:
 234:interface.c   ****     {
 235:interface.c   ****         jump = 2;
 236:interface.c   ****         deg = deg - jump;
 691              		.loc 1 236 0
 692 0066 0C4A     		ldr	r2, .L55
 693 0068 9368     		ldr	r3, [r2, #8]
 694 006a 023B     		subs	r3, r3, #2
 695 006c 9360     		str	r3, [r2, #8]
 696              	.LVL65:
 697              	.L49:
 237:interface.c   ****     }
 238:interface.c   ****     // boundaries
 239:interface.c   ****     if (deg < -41)
 698              		.loc 1 239 0
 699 006e 0A4B     		ldr	r3, .L55
 700 0070 9B68     		ldr	r3, [r3, #8]
 701 0072 13F1290F 		cmn	r3, #41
 702 0076 03DA     		bge	.L52
 240:interface.c   ****     {
 241:interface.c   ****         deg = -41;
 703              		.loc 1 241 0
 704 0078 6FF02802 		mvn	r2, #40
 705 007c 064B     		ldr	r3, .L55
 706 007e 9A60     		str	r2, [r3, #8]
 707              	.L52:
 242:interface.c   ****     }
 243:interface.c   ****     if (deg > 41)
 708              		.loc 1 243 0
 709 0080 054B     		ldr	r3, .L55
 710 0082 9B68     		ldr	r3, [r3, #8]
 711 0084 292B     		cmp	r3, #41
 712 0086 02DD     		ble	.L53
 244:interface.c   ****     {
 245:interface.c   ****         deg = 41;
 713              		.loc 1 245 0
 714 0088 2922     		movs	r2, #41
 715 008a 034B     		ldr	r3, .L55
 716 008c 9A60     		str	r2, [r3, #8]
 717              	.L53:
 246:interface.c   ****     }
 247:interface.c   ****     return convertedResult = deg;
ARM GAS  C:\Users\degn\AppData\Local\Temp\ccFJuEuV.s 			page 18


 718              		.loc 1 247 0
 719 008e 024B     		ldr	r3, .L55
 720 0090 B3F90800 		ldrsh	r0, [r3, #8]
 721 0094 9881     		strh	r0, [r3, #12]	@ movhi
 248:interface.c   **** }
 722              		.loc 1 248 0
 723 0096 08BD     		pop	{r3, pc}
 724              	.L56:
 725              		.align	2
 726              	.L55:
 727 0098 00000000 		.word	.LANCHOR0
 728              		.cfi_endproc
 729              	.LFE79:
 730              		.size	mode_2, .-mode_2
 731              		.section	.text.mode_3,"ax",%progbits
 732              		.align	2
 733              		.global	mode_3
 734              		.thumb
 735              		.thumb_func
 736              		.type	mode_3, %function
 737              	mode_3:
 738              	.LFB80:
 249:interface.c   **** 
 250:interface.c   **** void mode_3()
 251:interface.c   **** {
 739              		.loc 1 251 0
 740              		.cfi_startproc
 741              		@ args = 0, pretend = 0, frame = 0
 742              		@ frame_needed = 0, uses_anonymous_args = 0
 743 0000 08B5     		push	{r3, lr}
 744              		.cfi_def_cfa_offset 8
 745              		.cfi_offset 3, -8
 746              		.cfi_offset 14, -4
 252:interface.c   ****     int adc = ADC_SAR_1_GetResult16();
 747              		.loc 1 252 0
 748 0002 FFF7FEFF 		bl	ADC_SAR_1_GetResult16
 749              	.LVL66:
 253:interface.c   ****     if (adc > 2052)
 750              		.loc 1 253 0
 751 0006 40F60403 		movw	r3, #2052
 752 000a 9842     		cmp	r0, r3
 753 000c 12DD     		ble	.L58
 254:interface.c   ****     {
 255:interface.c   ****         PWM_2_WritePeriod(10000/((adc-2050)/300));
 754              		.loc 1 255 0
 755 000e A0F60200 		subw	r0, r0, #2050
 756              	.LVL67:
 757 0012 164B     		ldr	r3, .L62
 758 0014 83FB0023 		smull	r2, r3, r3, r0
 759 0018 C017     		asrs	r0, r0, #31
 760              	.LVL68:
 761 001a C0EB6310 		rsb	r0, r0, r3, asr #5
 762 001e 42F21073 		movw	r3, #10000
 763 0022 93FBF0F0 		sdiv	r0, r3, r0
 764 0026 80B2     		uxth	r0, r0
 765 0028 FFF7FEFF 		bl	PWM_2_WritePeriod
 766              	.LVL69:
ARM GAS  C:\Users\degn\AppData\Local\Temp\ccFJuEuV.s 			page 19


 256:interface.c   ****         gradientShift = 1;
 767              		.loc 1 256 0
 768 002c 0122     		movs	r2, #1
 769 002e 104B     		ldr	r3, .L62+4
 770 0030 1A60     		str	r2, [r3]
 771 0032 08BD     		pop	{r3, pc}
 772              	.LVL70:
 773              	.L58:
 257:interface.c   ****     }
 258:interface.c   ****     else if (adc < 2048)
 774              		.loc 1 258 0
 775 0034 B0F5006F 		cmp	r0, #2048
 776 0038 14DA     		bge	.L60
 259:interface.c   ****     {
 260:interface.c   ****         PWM_2_WritePeriod(10000/((2050-adc)/300));
 777              		.loc 1 260 0
 778 003a C0F50060 		rsb	r0, r0, #2048
 779              	.LVL71:
 780 003e 0230     		adds	r0, r0, #2
 781 0040 0A4B     		ldr	r3, .L62
 782 0042 83FB0023 		smull	r2, r3, r3, r0
 783 0046 C017     		asrs	r0, r0, #31
 784 0048 C0EB6310 		rsb	r0, r0, r3, asr #5
 785 004c 42F21073 		movw	r3, #10000
 786 0050 93FBF0F0 		sdiv	r0, r3, r0
 787 0054 80B2     		uxth	r0, r0
 788 0056 FFF7FEFF 		bl	PWM_2_WritePeriod
 789              	.LVL72:
 261:interface.c   ****         gradientShift = -1;
 790              		.loc 1 261 0
 791 005a 4FF0FF32 		mov	r2, #-1
 792 005e 044B     		ldr	r3, .L62+4
 793 0060 1A60     		str	r2, [r3]
 794 0062 08BD     		pop	{r3, pc}
 795              	.LVL73:
 796              	.L60:
 262:interface.c   ****     }
 263:interface.c   ****     else 
 264:interface.c   ****     {
 265:interface.c   ****         gradientShift = 0; 
 797              		.loc 1 265 0
 798 0064 0022     		movs	r2, #0
 799 0066 024B     		ldr	r3, .L62+4
 800 0068 1A60     		str	r2, [r3]
 801 006a 08BD     		pop	{r3, pc}
 802              	.L63:
 803              		.align	2
 804              	.L62:
 805 006c B5814E1B 		.word	458129845
 806 0070 00000000 		.word	.LANCHOR0
 807              		.cfi_endproc
 808              	.LFE80:
 809              		.size	mode_3, .-mode_3
 810              		.section	.text.motorSwitch,"ax",%progbits
 811              		.align	2
 812              		.global	motorSwitch
 813              		.thumb
ARM GAS  C:\Users\degn\AppData\Local\Temp\ccFJuEuV.s 			page 20


 814              		.thumb_func
 815              		.type	motorSwitch, %function
 816              	motorSwitch:
 817              	.LFB81:
 266:interface.c   ****     }
 267:interface.c   **** }
 268:interface.c   **** 
 269:interface.c   **** int motorSwitch()
 270:interface.c   **** {
 818              		.loc 1 270 0
 819              		.cfi_startproc
 820              		@ args = 0, pretend = 0, frame = 0
 821              		@ frame_needed = 0, uses_anonymous_args = 0
 822 0000 08B5     		push	{r3, lr}
 823              		.cfi_def_cfa_offset 8
 824              		.cfi_offset 3, -8
 825              		.cfi_offset 14, -4
 271:interface.c   ****     return MotorSwitchPin_Read();
 826              		.loc 1 271 0
 827 0002 FFF7FEFF 		bl	MotorSwitchPin_Read
 828              	.LVL74:
 272:interface.c   **** }
 829              		.loc 1 272 0
 830 0006 08BD     		pop	{r3, pc}
 831              		.cfi_endproc
 832              	.LFE81:
 833              		.size	motorSwitch, .-motorSwitch
 834              		.section	.text.ISR_print_handler,"ax",%progbits
 835              		.align	2
 836              		.global	ISR_print_handler
 837              		.thumb
 838              		.thumb_func
 839              		.type	ISR_print_handler, %function
 840              	ISR_print_handler:
 841              	.LFB66:
  71:interface.c   ****     if (motorSwitch())
 842              		.loc 1 71 0
 843              		.cfi_startproc
 844              		@ args = 0, pretend = 0, frame = 0
 845              		@ frame_needed = 0, uses_anonymous_args = 0
 846 0000 10B5     		push	{r4, lr}
 847              		.cfi_def_cfa_offset 8
 848              		.cfi_offset 4, -8
 849              		.cfi_offset 14, -4
  72:interface.c   ****     {
 850              		.loc 1 72 0
 851 0002 FFF7FEFF 		bl	motorSwitch
 852              	.LVL75:
 853 0006 0028     		cmp	r0, #0
 854 0008 30D0     		beq	.L66
  74:interface.c   ****         {
 855              		.loc 1 74 0
 856 000a 194B     		ldr	r3, .L71
 857 000c 1B68     		ldr	r3, [r3]
 858 000e 012B     		cmp	r3, #1
 859 0010 0ED1     		bne	.L68
  76:interface.c   ****             writeLCD("mode 1", unlock, LCDbuffer, degree);
ARM GAS  C:\Users\degn\AppData\Local\Temp\ccFJuEuV.s 			page 21


 860              		.loc 1 76 0
 861 0012 184C     		ldr	r4, .L71+4
 862 0014 184B     		ldr	r3, .L71+8
 863 0016 B3F90C20 		ldrsh	r2, [r3, #12]
 864 001a 1849     		ldr	r1, .L71+12
 865 001c 2046     		mov	r0, r4
 866 001e FFF7FEFF 		bl	sprintf
 867              	.LVL76:
  77:interface.c   ****         }
 868              		.loc 1 77 0
 869 0022 0023     		movs	r3, #0
 870 0024 2246     		mov	r2, r4
 871 0026 0321     		movs	r1, #3
 872 0028 1548     		ldr	r0, .L71+16
 873 002a FFF7FEFF 		bl	writeLCD
 874              	.LVL77:
 875 002e 10BD     		pop	{r4, pc}
 876              	.L68:
  79:interface.c   ****         {
 877              		.loc 1 79 0
 878 0030 022B     		cmp	r3, #2
 879 0032 0ED1     		bne	.L69
  81:interface.c   ****             writeLCD("mode 2", lock, LCDbuffer, degree);
 880              		.loc 1 81 0
 881 0034 0F4C     		ldr	r4, .L71+4
 882 0036 104B     		ldr	r3, .L71+8
 883 0038 B3F90C20 		ldrsh	r2, [r3, #12]
 884 003c 0F49     		ldr	r1, .L71+12
 885 003e 2046     		mov	r0, r4
 886 0040 FFF7FEFF 		bl	sprintf
 887              	.LVL78:
  82:interface.c   ****         }
 888              		.loc 1 82 0
 889 0044 0023     		movs	r3, #0
 890 0046 2246     		mov	r2, r4
 891 0048 0121     		movs	r1, #1
 892 004a 0E48     		ldr	r0, .L71+20
 893 004c FFF7FEFF 		bl	writeLCD
 894              	.LVL79:
 895 0050 10BD     		pop	{r4, pc}
 896              	.L69:
  86:interface.c   ****             writeLCD("mode 3", lock, LCDbuffer, degree);
 897              		.loc 1 86 0
 898 0052 084C     		ldr	r4, .L71+4
 899 0054 084B     		ldr	r3, .L71+8
 900 0056 5A68     		ldr	r2, [r3, #4]
 901 0058 0849     		ldr	r1, .L71+12
 902 005a 2046     		mov	r0, r4
 903 005c FFF7FEFF 		bl	sprintf
 904              	.LVL80:
  87:interface.c   ****         }  
 905              		.loc 1 87 0
 906 0060 0023     		movs	r3, #0
 907 0062 2246     		mov	r2, r4
 908 0064 0121     		movs	r1, #1
 909 0066 0848     		ldr	r0, .L71+24
 910 0068 FFF7FEFF 		bl	writeLCD
ARM GAS  C:\Users\degn\AppData\Local\Temp\ccFJuEuV.s 			page 22


 911              	.LVL81:
 912              	.L66:
 913 006c 10BD     		pop	{r4, pc}
 914              	.L72:
 915 006e 00BF     		.align	2
 916              	.L71:
 917 0070 00000000 		.word	.LANCHOR1
 918 0074 00000000 		.word	LCDbuffer
 919 0078 00000000 		.word	.LANCHOR0
 920 007c 40000000 		.word	.LC6
 921 0080 50000000 		.word	.LC7
 922 0084 58000000 		.word	.LC8
 923 0088 60000000 		.word	.LC9
 924              		.cfi_endproc
 925              	.LFE66:
 926              		.size	ISR_print_handler, .-ISR_print_handler
 927              		.section	.text.adcToDegrees,"ax",%progbits
 928              		.align	2
 929              		.global	adcToDegrees
 930              		.thumb
 931              		.thumb_func
 932              		.type	adcToDegrees, %function
 933              	adcToDegrees:
 934              	.LFB82:
 273:interface.c   **** 
 274:interface.c   **** int adcToDegrees(int adc_value)
 275:interface.c   **** {
 935              		.loc 1 275 0
 936              		.cfi_startproc
 937              		@ args = 0, pretend = 0, frame = 0
 938              		@ frame_needed = 0, uses_anonymous_args = 0
 939              		@ link register save eliminated.
 940              	.LVL82:
 276:interface.c   **** 
 277:interface.c   ****     // Check if adc_value is out of bounds
 278:interface.c   ****     if (adc_value < adc_min)
 941              		.loc 1 278 0
 942 0000 1D28     		cmp	r0, #29
 943 0002 04DD     		ble	.L75
 279:interface.c   ****     {
 280:interface.c   ****         adc_value = adc_min;
 281:interface.c   ****     }
 282:interface.c   ****     else if (adc_value > adc_max)
 944              		.loc 1 282 0
 945 0004 40F6D273 		movw	r3, #4050
 946 0008 9842     		cmp	r0, r3
 947 000a 02DC     		bgt	.L76
 948 000c 03E0     		b	.L74
 949              	.L75:
 280:interface.c   ****     }
 950              		.loc 1 280 0
 951 000e 1E20     		movs	r0, #30
 952              	.LVL83:
 953 0010 01E0     		b	.L74
 954              	.LVL84:
 955              	.L76:
 283:interface.c   ****     {
ARM GAS  C:\Users\degn\AppData\Local\Temp\ccFJuEuV.s 			page 23


 284:interface.c   ****         adc_value = adc_max;
 956              		.loc 1 284 0
 957 0012 40F6D270 		movw	r0, #4050
 958              	.LVL85:
 959              	.L74:
 285:interface.c   ****     }
 286:interface.c   **** 
 287:interface.c   ****     // Calculate degrees using linear interpolation formula
 288:interface.c   ****     int degrees = ((adc_value - adc_min) * (deg_max - deg_min)) / (adc_max - adc_min) + deg_min;
 960              		.loc 1 288 0
 961 0016 1E38     		subs	r0, r0, #30
 962              	.LVL86:
 963 0018 4623     		movs	r3, #70
 964 001a 03FB00F3 		mul	r3, r3, r0
 965 001e 0448     		ldr	r0, .L77
 966              	.LVL87:
 967 0020 80FB0320 		smull	r2, r0, r0, r3
 968 0024 DB17     		asrs	r3, r3, #31
 969 0026 C3EBA020 		rsb	r0, r3, r0, asr #10
 970              	.LVL88:
 289:interface.c   **** 
 290:interface.c   ****     return degrees;
 291:interface.c   **** }...
 971              		.loc 1 291 0
 972 002a 2338     		subs	r0, r0, #35
 973              	.LVL89:
 974 002c 7047     		bx	lr
 975              	.L78:
 976 002e 00BF     		.align	2
 977              	.L77:
 978 0030 4DBF3541 		.word	1094041421
 979              		.cfi_endproc
 980              	.LFE82:
 981              		.size	adcToDegrees, .-adcToDegrees
 982              		.section	.text.setpoint,"ax",%progbits
 983              		.align	2
 984              		.global	setpoint
 985              		.thumb
 986              		.thumb_func
 987              		.type	setpoint, %function
 988              	setpoint:
 989              	.LFB77:
 196:interface.c   **** {
 990              		.loc 1 196 0
 991              		.cfi_startproc
 992              		@ args = 0, pretend = 0, frame = 0
 993              		@ frame_needed = 0, uses_anonymous_args = 0
 994 0000 08B5     		push	{r3, lr}
 995              		.cfi_def_cfa_offset 8
 996              		.cfi_offset 3, -8
 997              		.cfi_offset 14, -4
 198:interface.c   ****     return adcToDegrees( ADC_SAR_1_GetResult16() );
 998              		.loc 1 198 0
 999 0002 FFF7FEFF 		bl	ADC_SAR_1_GetResult16
 1000              	.LVL90:
 1001 0006 FFF7FEFF 		bl	adcToDegrees
 1002              	.LVL91:
ARM GAS  C:\Users\degn\AppData\Local\Temp\ccFJuEuV.s 			page 24


 199:interface.c   **** }
 1003              		.loc 1 199 0
 1004 000a 08BD     		pop	{r3, pc}
 1005              		.cfi_endproc
 1006              	.LFE77:
 1007              		.size	setpoint, .-setpoint
 1008              		.section	.text.mode_1,"ax",%progbits
 1009              		.align	2
 1010              		.global	mode_1
 1011              		.thumb
 1012              		.thumb_func
 1013              		.type	mode_1, %function
 1014              	mode_1:
 1015              	.LFB78:
 202:interface.c   **** {
 1016              		.loc 1 202 0
 1017              		.cfi_startproc
 1018              		@ args = 0, pretend = 0, frame = 0
 1019              		@ frame_needed = 0, uses_anonymous_args = 0
 1020 0000 38B5     		push	{r3, r4, r5, lr}
 1021              		.cfi_def_cfa_offset 16
 1022              		.cfi_offset 3, -16
 1023              		.cfi_offset 4, -12
 1024              		.cfi_offset 5, -8
 1025              		.cfi_offset 14, -4
 1026              	.LVL92:
 1027              	.LBB2:
 206:interface.c   ****     for (int i = 0; i < loops; i++)
 1028              		.loc 1 206 0
 1029 0002 0024     		movs	r4, #0
 1030              	.LBE2:
 205:interface.c   ****     long sum = 0;
 1031              		.loc 1 205 0
 1032 0004 2546     		mov	r5, r4
 1033              	.LBB3:
 206:interface.c   ****     for (int i = 0; i < loops; i++)
 1034              		.loc 1 206 0
 1035 0006 03E0     		b	.L82
 1036              	.LVL93:
 1037              	.L83:
 208:interface.c   ****         sum = sum + ADC_SAR_1_GetResult16();
 1038              		.loc 1 208 0 discriminator 3
 1039 0008 FFF7FEFF 		bl	ADC_SAR_1_GetResult16
 1040              	.LVL94:
 1041 000c 0544     		add	r5, r5, r0
 1042              	.LVL95:
 206:interface.c   ****     for (int i = 0; i < loops; i++)
 1043              		.loc 1 206 0 discriminator 3
 1044 000e 0134     		adds	r4, r4, #1
 1045              	.LVL96:
 1046              	.L82:
 206:interface.c   ****     for (int i = 0; i < loops; i++)
 1047              		.loc 1 206 0 is_stmt 0 discriminator 1
 1048 0010 092C     		cmp	r4, #9
 1049 0012 F9DD     		ble	.L83
 1050              	.LBE3:
 210:interface.c   ****     sum = sum / loops;
ARM GAS  C:\Users\degn\AppData\Local\Temp\ccFJuEuV.s 			page 25


 1051              		.loc 1 210 0 is_stmt 1
 1052 0014 0548     		ldr	r0, .L85
 1053 0016 80FB0530 		smull	r3, r0, r0, r5
 1054 001a ED17     		asrs	r5, r5, #31
 1055              	.LVL97:
 211:interface.c   ****     convertedResult = adcToDegrees(sum);
 1056              		.loc 1 211 0
 1057 001c C5EBA000 		rsb	r0, r5, r0, asr #2
 1058              	.LVL98:
 1059 0020 FFF7FEFF 		bl	adcToDegrees
 1060              	.LVL99:
 1061 0024 00B2     		sxth	r0, r0
 1062 0026 024B     		ldr	r3, .L85+4
 1063 0028 9881     		strh	r0, [r3, #12]	@ movhi
 213:interface.c   **** }
 1064              		.loc 1 213 0
 1065 002a 38BD     		pop	{r3, r4, r5, pc}
 1066              	.LVL100:
 1067              	.L86:
 1068              		.align	2
 1069              	.L85:
 1070 002c 67666666 		.word	1717986919
 1071 0030 00000000 		.word	.LANCHOR0
 1072              		.cfi_endproc
 1073              	.LFE78:
 1074              		.size	mode_1, .-mode_1
 1075              		.global	gradientCount
 1076              		.global	gradientShift
 1077              		.global	pass
 1078              		.comm	tempbuffer,20,4
 1079              		.global	block
 1080              		.comm	LCDbuffer,20,4
 1081              		.global	deg
 1082              		.global	toggle
 1083              		.global	convertedResult
 1084              		.data
 1085              		.align	2
 1086              		.set	.LANCHOR1,. + 0
 1087              		.type	toggle, %object
 1088              		.size	toggle, 4
 1089              	toggle:
 1090 0000 03000000 		.word	3
 1091              		.type	pass, %object
 1092              		.size	pass, 4
 1093              	pass:
 1094 0004 01000000 		.word	1
 1095              		.section	.rodata.str1.4,"aMS",%progbits,1
 1096              		.align	2
 1097              	.LC0:
 1098 0000 4F6E00   		.ascii	"On\000"
 1099 0003 00       		.space	1
 1100              	.LC1:
 1101 0004 4F666600 		.ascii	"Off\000"
 1102              	.LC2:
 1103 0008 53746172 		.ascii	"Starting\000"
 1103      74696E67 
 1103      00
ARM GAS  C:\Users\degn\AppData\Local\Temp\ccFJuEuV.s 			page 26


 1104 0011 000000   		.space	3
 1105              	.LC3:
 1106 0014 44726F6E 		.ascii	"Dron-A Lisa\000"
 1106      2D41204C 
 1106      69736100 
 1107              	.LC4:
 1108 0020 53657470 		.ascii	"Setpoint: %i\000"
 1108      6F696E74 
 1108      3A202569 
 1108      00
 1109 002d 000000   		.space	3
 1110              	.LC5:
 1111 0030 53656E73 		.ascii	"Sensor: %.2f\000"
 1111      6F723A20 
 1111      252E3266 
 1111      00
 1112 003d 000000   		.space	3
 1113              	.LC6:
 1114 0040 25692020 		.ascii	"%i             \000"
 1114      20202020 
 1114      20202020 
 1114      20202000 
 1115              	.LC7:
 1116 0050 6D6F6465 		.ascii	"mode 1\000"
 1116      203100
 1117 0057 00       		.space	1
 1118              	.LC8:
 1119 0058 6D6F6465 		.ascii	"mode 2\000"
 1119      203200
 1120 005f 00       		.space	1
 1121              	.LC9:
 1122 0060 6D6F6465 		.ascii	"mode 3\000"
 1122      203300
 1123              		.bss
 1124              		.align	2
 1125              		.set	.LANCHOR0,. + 0
 1126              		.type	gradientShift, %object
 1127              		.size	gradientShift, 4
 1128              	gradientShift:
 1129 0000 00000000 		.space	4
 1130              		.type	gradientCount, %object
 1131              		.size	gradientCount, 4
 1132              	gradientCount:
 1133 0004 00000000 		.space	4
 1134              		.type	deg, %object
 1135              		.size	deg, 4
 1136              	deg:
 1137 0008 00000000 		.space	4
 1138              		.type	convertedResult, %object
 1139              		.size	convertedResult, 2
 1140              	convertedResult:
 1141 000c 0000     		.space	2
 1142 000e 0000     		.space	2
 1143              		.type	i, %object
 1144              		.size	i, 4
 1145              	i:
 1146 0010 00000000 		.space	4
ARM GAS  C:\Users\degn\AppData\Local\Temp\ccFJuEuV.s 			page 27


 1147              		.type	values, %object
 1148              		.size	values, 20
 1149              	values:
 1150 0014 00000000 		.space	20
 1150      00000000 
 1150      00000000 
 1150      00000000 
 1150      00000000 
 1151              		.type	sum, %object
 1152              		.size	sum, 4
 1153              	sum:
 1154 0028 00000000 		.space	4
 1155              		.type	c, %object
 1156              		.size	c, 4
 1157              	c:
 1158 002c 00000000 		.space	4
 1159              		.type	block, %object
 1160              		.size	block, 4
 1161              	block:
 1162 0030 00000000 		.space	4
 1163              		.text
 1164              	.Letext0:
 1165              		.file 2 "c:\\program files (x86)\\cypress\\psoc creator\\4.4\\psoc creator\\import\\gnu\\arm\\5.4.
 1166              		.file 3 "c:\\program files (x86)\\cypress\\psoc creator\\4.4\\psoc creator\\import\\gnu\\arm\\5.4.
 1167              		.file 4 "Generated_Source\\PSoC5/core_cm3.h"
 1168              		.file 5 "Generated_Source\\PSoC5/LCD.h"
 1169              		.file 6 "Generated_Source\\PSoC5/ADC_SAR_1.h"
 1170              		.file 7 "Generated_Source\\PSoC5/isr_motorSwitch_On.h"
 1171              		.file 8 "Generated_Source\\PSoC5/isr_motorSwitch_Off.h"
 1172              		.file 9 "Generated_Source\\PSoC5/PWM_1.h"
 1173              		.file 10 "Generated_Source\\PSoC5/PWM_2.h"
 1174              		.file 11 "Generated_Source\\PSoC5/isr_toggle.h"
 1175              		.file 12 "Generated_Source\\PSoC5/isr_print.h"
 1176              		.file 13 "Generated_Source\\PSoC5/isr_gradient.h"
 1177              		.file 14 "c:\\program files (x86)\\cypress\\psoc creator\\4.4\\psoc creator\\import\\gnu\\arm\\5.4
 1178              		.file 15 "Generated_Source\\PSoC5/MotorSwitchPin.h"