ARM GAS  C:\Users\degn\AppData\Local\Temp\ccNY7HAN.s 			page 1


   1              		.syntax unified
   2              		.cpu cortex-m3
   3              		.fpu softvfp
   4              		.eabi_attribute 20, 1
   5              		.eabi_attribute 21, 1
   6              		.eabi_attribute 23, 3
   7              		.eabi_attribute 24, 1
   8              		.eabi_attribute 25, 1
   9              		.eabi_attribute 26, 1
  10              		.eabi_attribute 30, 1
  11              		.eabi_attribute 34, 1
  12              		.eabi_attribute 18, 4
  13              		.thumb
  14              		.syntax unified
  15              		.file	"interface.c"
  16              		.text
  17              	.Ltext0:
  18              		.cfi_sections	.debug_frame
  19              		.section	.text.ISR_gradient_handler,"ax",%progbits
  20              		.align	2
  21              		.global	ISR_gradient_handler
  22              		.thumb
  23              		.thumb_func
  24              		.type	ISR_gradient_handler, %function
  25              	ISR_gradient_handler:
  26              	.LFB64:
  27              		.file 1 "interface.c"
   1:interface.c   **** #include "project.h"
   2:interface.c   **** 
   3:interface.c   **** #include "interface.h"
   4:interface.c   **** 
   5:interface.c   **** // Global Variels.
   6:interface.c   **** int16_t convertedResult = 0;
   7:interface.c   **** int toggle = 3;
   8:interface.c   **** int deg = 0;
   9:interface.c   **** char LCDbuffer[20];
  10:interface.c   **** int block = 0;
  11:interface.c   **** char tempbuffer[20];
  12:interface.c   **** int pass = 1;
  13:interface.c   **** int gradientShift = 0;
  14:interface.c   **** int gradientCount = 0;
  15:interface.c   **** 
  16:interface.c   **** enum symbol
  17:interface.c   **** {
  18:interface.c   ****     degree = 0,
  19:interface.c   ****     lock,
  20:interface.c   ****     undefined,
  21:interface.c   ****     unlock
  22:interface.c   **** };
  23:interface.c   **** 
  24:interface.c   **** CY_ISR(ISR_gradient_handler)
  25:interface.c   **** {
  28              		.loc 1 25 0
  29              		.cfi_startproc
  30              		@ args = 0, pretend = 0, frame = 0
  31              		@ frame_needed = 0, uses_anonymous_args = 0
  32              		@ link register save eliminated.
ARM GAS  C:\Users\degn\AppData\Local\Temp\ccNY7HAN.s 			page 2


  26:interface.c   ****     if (0 == gradientShift)
  33              		.loc 1 26 0
  34 0000 0C4B     		ldr	r3, .L4
  35 0002 1B68     		ldr	r3, [r3]
  36 0004 A3B1     		cbz	r3, .L1
  27:interface.c   ****     {
  28:interface.c   ****         return;
  29:interface.c   ****     }
  30:interface.c   ****     else if (-1 == gradientShift)
  37              		.loc 1 30 0
  38 0006 B3F1FF3F 		cmp	r3, #-1
  39 000a 08D1     		bne	.L3
  31:interface.c   ****     {
  32:interface.c   ****         if (-40 <= gradientCount)
  40              		.loc 1 32 0
  41 000c 094B     		ldr	r3, .L4
  42 000e 5B68     		ldr	r3, [r3, #4]
  43 0010 13F1280F 		cmn	r3, #40
  44 0014 0CDB     		blt	.L1
  33:interface.c   ****         {
  34:interface.c   ****             gradientCount = gradientCount - 1;
  45              		.loc 1 34 0
  46 0016 013B     		subs	r3, r3, #1
  47 0018 064A     		ldr	r2, .L4
  48 001a 5360     		str	r3, [r2, #4]
  49 001c 7047     		bx	lr
  50              	.L3:
  35:interface.c   ****         }
  36:interface.c   ****     }
  37:interface.c   ****     else if (1 == gradientShift)
  51              		.loc 1 37 0
  52 001e 012B     		cmp	r3, #1
  53 0020 06D1     		bne	.L1
  38:interface.c   ****     {
  39:interface.c   ****         if (40 >= gradientCount)
  54              		.loc 1 39 0
  55 0022 044B     		ldr	r3, .L4
  56 0024 5B68     		ldr	r3, [r3, #4]
  57 0026 282B     		cmp	r3, #40
  58 0028 02DC     		bgt	.L1
  40:interface.c   ****         {
  41:interface.c   ****             gradientCount = gradientCount + 1;
  59              		.loc 1 41 0
  60 002a 0133     		adds	r3, r3, #1
  61 002c 014A     		ldr	r2, .L4
  62 002e 5360     		str	r3, [r2, #4]
  63              	.L1:
  64 0030 7047     		bx	lr
  65              	.L5:
  66 0032 00BF     		.align	2
  67              	.L4:
  68 0034 00000000 		.word	.LANCHOR0
  69              		.cfi_endproc
  70              	.LFE64:
  71              		.size	ISR_gradient_handler, .-ISR_gradient_handler
  72              		.section	.text.ISR_toggle_handler,"ax",%progbits
  73              		.align	2
ARM GAS  C:\Users\degn\AppData\Local\Temp\ccNY7HAN.s 			page 3


  74              		.global	ISR_toggle_handler
  75              		.thumb
  76              		.thumb_func
  77              		.type	ISR_toggle_handler, %function
  78              	ISR_toggle_handler:
  79              	.LFB65:
  42:interface.c   ****         }
  43:interface.c   ****     }
  44:interface.c   **** }
  45:interface.c   **** 
  46:interface.c   **** CY_ISR(ISR_toggle_handler)
  47:interface.c   **** {
  80              		.loc 1 47 0
  81              		.cfi_startproc
  82              		@ args = 0, pretend = 0, frame = 0
  83              		@ frame_needed = 0, uses_anonymous_args = 0
  84              		@ link register save eliminated.
  48:interface.c   ****     deg = convertedResult;
  85              		.loc 1 48 0
  86 0000 0B4B     		ldr	r3, .L10
  87 0002 B3F90C20 		ldrsh	r2, [r3, #12]
  88 0006 9A60     		str	r2, [r3, #8]
  49:interface.c   ****     convertedResult = deg;
  50:interface.c   ****     if (1 == toggle)
  89              		.loc 1 50 0
  90 0008 0A4B     		ldr	r3, .L10+4
  91 000a 1B68     		ldr	r3, [r3]
  92 000c 012B     		cmp	r3, #1
  93 000e 03D1     		bne	.L7
  51:interface.c   ****     {
  52:interface.c   ****         toggle = 2;
  94              		.loc 1 52 0
  95 0010 0222     		movs	r2, #2
  96 0012 084B     		ldr	r3, .L10+4
  97 0014 1A60     		str	r2, [r3]
  98 0016 7047     		bx	lr
  99              	.L7:
  53:interface.c   ****     }
  54:interface.c   ****     else if (2 == toggle)
 100              		.loc 1 54 0
 101 0018 022B     		cmp	r3, #2
 102 001a 03D1     		bne	.L9
  55:interface.c   ****     {
  56:interface.c   ****         toggle = 3;
 103              		.loc 1 56 0
 104 001c 0322     		movs	r2, #3
 105 001e 054B     		ldr	r3, .L10+4
 106 0020 1A60     		str	r2, [r3]
 107 0022 7047     		bx	lr
 108              	.L9:
  57:interface.c   ****     }
  58:interface.c   ****     else if (3 == toggle)
 109              		.loc 1 58 0
 110 0024 032B     		cmp	r3, #3
 111 0026 02D1     		bne	.L6
  59:interface.c   ****     {
  60:interface.c   ****         toggle = 1;
ARM GAS  C:\Users\degn\AppData\Local\Temp\ccNY7HAN.s 			page 4


 112              		.loc 1 60 0
 113 0028 0122     		movs	r2, #1
 114 002a 024B     		ldr	r3, .L10+4
 115 002c 1A60     		str	r2, [r3]
 116              	.L6:
 117 002e 7047     		bx	lr
 118              	.L11:
 119              		.align	2
 120              	.L10:
 121 0030 00000000 		.word	.LANCHOR0
 122 0034 00000000 		.word	.LANCHOR1
 123              		.cfi_endproc
 124              	.LFE65:
 125              		.size	ISR_toggle_handler, .-ISR_toggle_handler
 126              		.section	.text.Init_LCD,"ax",%progbits
 127              		.align	2
 128              		.global	Init_LCD
 129              		.thumb
 130              		.thumb_func
 131              		.type	Init_LCD, %function
 132              	Init_LCD:
 133              	.LFB68:
  61:interface.c   ****     }
  62:interface.c   **** }
  63:interface.c   **** 
  64:interface.c   **** CY_ISR(ISR_print_handler)
  65:interface.c   **** {
  66:interface.c   ****     if (motorSwitch())
  67:interface.c   ****     {
  68:interface.c   ****         if (1 == toggle)
  69:interface.c   ****         {
  70:interface.c   ****             sprintf(LCDbuffer, "%i             ", convertedResult);
  71:interface.c   ****             writeLCD("mode 1", unlock, LCDbuffer, degree);
  72:interface.c   ****         }
  73:interface.c   ****         else if (2 == toggle)
  74:interface.c   ****         {
  75:interface.c   ****             sprintf(LCDbuffer, "%i             ", convertedResult);
  76:interface.c   ****             writeLCD("mode 2", lock, LCDbuffer, degree);
  77:interface.c   ****         }
  78:interface.c   ****         else
  79:interface.c   ****         {
  80:interface.c   ****             sprintf(LCDbuffer, "%i             ", gradientCount);
  81:interface.c   ****             writeLCD("mode 3", lock, LCDbuffer, degree);
  82:interface.c   ****         }  
  83:interface.c   ****     }
  84:interface.c   ****     
  85:interface.c   **** }
  86:interface.c   **** 
  87:interface.c   **** void init_interface()
  88:interface.c   **** {
  89:interface.c   ****     Init_LCD();
  90:interface.c   ****     Init_ISR();
  91:interface.c   ****     Init_PWM();
  92:interface.c   ****     Init_ADC();
  93:interface.c   **** }
  94:interface.c   **** 
  95:interface.c   **** void Init_LCD()
ARM GAS  C:\Users\degn\AppData\Local\Temp\ccNY7HAN.s 			page 5


  96:interface.c   **** {
 134              		.loc 1 96 0
 135              		.cfi_startproc
 136              		@ args = 0, pretend = 0, frame = 0
 137              		@ frame_needed = 0, uses_anonymous_args = 0
 138 0000 08B5     		push	{r3, lr}
 139              		.cfi_def_cfa_offset 8
 140              		.cfi_offset 3, -8
 141              		.cfi_offset 14, -4
  97:interface.c   ****     LCD_ClearDisplay();
 142              		.loc 1 97 0
 143 0002 0120     		movs	r0, #1
 144 0004 FFF7FEFF 		bl	LCD_WriteControl
 145              	.LVL0:
  98:interface.c   ****     LCD_Start();
 146              		.loc 1 98 0
 147 0008 FFF7FEFF 		bl	LCD_Start
 148              	.LVL1:
  99:interface.c   ****     LCD_Position(0, 0);
 149              		.loc 1 99 0
 150 000c 0021     		movs	r1, #0
 151 000e 0846     		mov	r0, r1
 152 0010 FFF7FEFF 		bl	LCD_Position
 153              	.LVL2:
 100:interface.c   ****     LCD_PrintString("Starting");
 154              		.loc 1 100 0
 155 0014 0748     		ldr	r0, .L14
 156 0016 FFF7FEFF 		bl	LCD_PrintString
 157              	.LVL3:
 101:interface.c   ****     LCD_Position(1, 0);
 158              		.loc 1 101 0
 159 001a 0021     		movs	r1, #0
 160 001c 0120     		movs	r0, #1
 161 001e FFF7FEFF 		bl	LCD_Position
 162              	.LVL4:
 102:interface.c   ****     LCD_PrintString("Application");
 163              		.loc 1 102 0
 164 0022 0548     		ldr	r0, .L14+4
 165 0024 FFF7FEFF 		bl	LCD_PrintString
 166              	.LVL5:
 103:interface.c   ****     CyDelay(1000);
 167              		.loc 1 103 0
 168 0028 4FF47A70 		mov	r0, #1000
 169 002c FFF7FEFF 		bl	CyDelay
 170              	.LVL6:
 171 0030 08BD     		pop	{r3, pc}
 172              	.L15:
 173 0032 00BF     		.align	2
 174              	.L14:
 175 0034 00000000 		.word	.LC0
 176 0038 0C000000 		.word	.LC1
 177              		.cfi_endproc
 178              	.LFE68:
 179              		.size	Init_LCD, .-Init_LCD
 180              		.section	.text.Init_ADC,"ax",%progbits
 181              		.align	2
 182              		.global	Init_ADC
ARM GAS  C:\Users\degn\AppData\Local\Temp\ccNY7HAN.s 			page 6


 183              		.thumb
 184              		.thumb_func
 185              		.type	Init_ADC, %function
 186              	Init_ADC:
 187              	.LFB69:
 104:interface.c   **** }
 105:interface.c   **** 
 106:interface.c   **** void Init_ADC()
 107:interface.c   **** {
 188              		.loc 1 107 0
 189              		.cfi_startproc
 190              		@ args = 0, pretend = 0, frame = 0
 191              		@ frame_needed = 0, uses_anonymous_args = 0
 192 0000 08B5     		push	{r3, lr}
 193              		.cfi_def_cfa_offset 8
 194              		.cfi_offset 3, -8
 195              		.cfi_offset 14, -4
 108:interface.c   ****     ADC_SAR_1_Start();
 196              		.loc 1 108 0
 197 0002 FFF7FEFF 		bl	ADC_SAR_1_Start
 198              	.LVL7:
 109:interface.c   ****     ADC_SAR_1_StartConvert();
 199              		.loc 1 109 0
 200 0006 FFF7FEFF 		bl	ADC_SAR_1_StartConvert
 201              	.LVL8:
 202 000a 08BD     		pop	{r3, pc}
 203              		.cfi_endproc
 204              	.LFE69:
 205              		.size	Init_ADC, .-Init_ADC
 206              		.section	.text.Init_PWM,"ax",%progbits
 207              		.align	2
 208              		.global	Init_PWM
 209              		.thumb
 210              		.thumb_func
 211              		.type	Init_PWM, %function
 212              	Init_PWM:
 213              	.LFB70:
 110:interface.c   **** }
 111:interface.c   **** 
 112:interface.c   **** void Init_PWM()
 113:interface.c   **** {
 214              		.loc 1 113 0
 215              		.cfi_startproc
 216              		@ args = 0, pretend = 0, frame = 0
 217              		@ frame_needed = 0, uses_anonymous_args = 0
 218 0000 08B5     		push	{r3, lr}
 219              		.cfi_def_cfa_offset 8
 220              		.cfi_offset 3, -8
 221              		.cfi_offset 14, -4
 114:interface.c   ****     PWM_1_Start();
 222              		.loc 1 114 0
 223 0002 FFF7FEFF 		bl	PWM_1_Start
 224              	.LVL9:
 115:interface.c   ****     PWM_2_Start();
 225              		.loc 1 115 0
 226 0006 FFF7FEFF 		bl	PWM_2_Start
 227              	.LVL10:
ARM GAS  C:\Users\degn\AppData\Local\Temp\ccNY7HAN.s 			page 7


 228 000a 08BD     		pop	{r3, pc}
 229              		.cfi_endproc
 230              	.LFE70:
 231              		.size	Init_PWM, .-Init_PWM
 232              		.section	.text.Init_ISR,"ax",%progbits
 233              		.align	2
 234              		.global	Init_ISR
 235              		.thumb
 236              		.thumb_func
 237              		.type	Init_ISR, %function
 238              	Init_ISR:
 239              	.LFB71:
 116:interface.c   **** }
 117:interface.c   **** 
 118:interface.c   **** void Init_ISR()
 119:interface.c   **** {
 240              		.loc 1 119 0
 241              		.cfi_startproc
 242              		@ args = 0, pretend = 0, frame = 0
 243              		@ frame_needed = 0, uses_anonymous_args = 0
 244 0000 08B5     		push	{r3, lr}
 245              		.cfi_def_cfa_offset 8
 246              		.cfi_offset 3, -8
 247              		.cfi_offset 14, -4
 120:interface.c   ****     isr_toggle_StartEx(ISR_toggle_handler);
 248              		.loc 1 120 0
 249 0002 0548     		ldr	r0, .L22
 250 0004 FFF7FEFF 		bl	isr_toggle_StartEx
 251              	.LVL11:
 121:interface.c   ****     isr_print_StartEx(ISR_print_handler);
 252              		.loc 1 121 0
 253 0008 0448     		ldr	r0, .L22+4
 254 000a FFF7FEFF 		bl	isr_print_StartEx
 255              	.LVL12:
 122:interface.c   ****     isr_gradient_StartEx(ISR_gradient_handler);
 256              		.loc 1 122 0
 257 000e 0448     		ldr	r0, .L22+8
 258 0010 FFF7FEFF 		bl	isr_gradient_StartEx
 259              	.LVL13:
 260 0014 08BD     		pop	{r3, pc}
 261              	.L23:
 262 0016 00BF     		.align	2
 263              	.L22:
 264 0018 00000000 		.word	ISR_toggle_handler
 265 001c 00000000 		.word	ISR_print_handler
 266 0020 00000000 		.word	ISR_gradient_handler
 267              		.cfi_endproc
 268              	.LFE71:
 269              		.size	Init_ISR, .-Init_ISR
 270              		.section	.text.init_interface,"ax",%progbits
 271              		.align	2
 272              		.global	init_interface
 273              		.thumb
 274              		.thumb_func
 275              		.type	init_interface, %function
 276              	init_interface:
 277              	.LFB67:
ARM GAS  C:\Users\degn\AppData\Local\Temp\ccNY7HAN.s 			page 8


  88:interface.c   ****     Init_LCD();
 278              		.loc 1 88 0
 279              		.cfi_startproc
 280              		@ args = 0, pretend = 0, frame = 0
 281              		@ frame_needed = 0, uses_anonymous_args = 0
 282 0000 08B5     		push	{r3, lr}
 283              		.cfi_def_cfa_offset 8
 284              		.cfi_offset 3, -8
 285              		.cfi_offset 14, -4
  89:interface.c   ****     Init_ISR();
 286              		.loc 1 89 0
 287 0002 FFF7FEFF 		bl	Init_LCD
 288              	.LVL14:
  90:interface.c   ****     Init_PWM();
 289              		.loc 1 90 0
 290 0006 FFF7FEFF 		bl	Init_ISR
 291              	.LVL15:
  91:interface.c   ****     Init_ADC();
 292              		.loc 1 91 0
 293 000a FFF7FEFF 		bl	Init_PWM
 294              	.LVL16:
  92:interface.c   **** }
 295              		.loc 1 92 0
 296 000e FFF7FEFF 		bl	Init_ADC
 297              	.LVL17:
 298 0012 08BD     		pop	{r3, pc}
 299              		.cfi_endproc
 300              	.LFE67:
 301              		.size	init_interface, .-init_interface
 302              		.section	.text.writeLCD,"ax",%progbits
 303              		.align	2
 304              		.global	writeLCD
 305              		.thumb
 306              		.thumb_func
 307              		.type	writeLCD, %function
 308              	writeLCD:
 309              	.LFB72:
 123:interface.c   **** }
 124:interface.c   **** 
 125:interface.c   **** void writeLCD(char *top, int endTopChar, char *buttom, int endButtomChar)
 126:interface.c   **** {
 310              		.loc 1 126 0
 311              		.cfi_startproc
 312              		@ args = 0, pretend = 0, frame = 0
 313              		@ frame_needed = 0, uses_anonymous_args = 0
 314              	.LVL18:
 315 0000 F8B5     		push	{r3, r4, r5, r6, r7, lr}
 316              		.cfi_def_cfa_offset 24
 317              		.cfi_offset 3, -24
 318              		.cfi_offset 4, -20
 319              		.cfi_offset 5, -16
 320              		.cfi_offset 6, -12
 321              		.cfi_offset 7, -8
 322              		.cfi_offset 14, -4
 323 0002 0746     		mov	r7, r0
 324 0004 0E46     		mov	r6, r1
 325 0006 1546     		mov	r5, r2
ARM GAS  C:\Users\degn\AppData\Local\Temp\ccNY7HAN.s 			page 9


 326 0008 1C46     		mov	r4, r3
 127:interface.c   ****     LCD_ClearDisplay();
 327              		.loc 1 127 0
 328 000a 0120     		movs	r0, #1
 329              	.LVL19:
 330 000c FFF7FEFF 		bl	LCD_WriteControl
 331              	.LVL20:
 128:interface.c   ****     LCD_Position(0, 0);
 332              		.loc 1 128 0
 333 0010 0021     		movs	r1, #0
 334 0012 0846     		mov	r0, r1
 335 0014 FFF7FEFF 		bl	LCD_Position
 336              	.LVL21:
 129:interface.c   ****     LCD_PrintString(top);
 337              		.loc 1 129 0
 338 0018 3846     		mov	r0, r7
 339 001a FFF7FEFF 		bl	LCD_PrintString
 340              	.LVL22:
 130:interface.c   ****     LCD_Position(0, 15);
 341              		.loc 1 130 0
 342 001e 0F21     		movs	r1, #15
 343 0020 0020     		movs	r0, #0
 344 0022 FFF7FEFF 		bl	LCD_Position
 345              	.LVL23:
 131:interface.c   ****     LCD_PutChar(endTopChar);
 346              		.loc 1 131 0
 347 0026 F0B2     		uxtb	r0, r6
 348 0028 FFF7FEFF 		bl	LCD_PutChar
 349              	.LVL24:
 132:interface.c   ****     LCD_Position(1, 0);
 350              		.loc 1 132 0
 351 002c 0021     		movs	r1, #0
 352 002e 0120     		movs	r0, #1
 353 0030 FFF7FEFF 		bl	LCD_Position
 354              	.LVL25:
 133:interface.c   ****     LCD_PrintString(buttom);
 355              		.loc 1 133 0
 356 0034 2846     		mov	r0, r5
 357 0036 FFF7FEFF 		bl	LCD_PrintString
 358              	.LVL26:
 134:interface.c   ****     LCD_Position(1, 15);
 359              		.loc 1 134 0
 360 003a 0F21     		movs	r1, #15
 361 003c 0120     		movs	r0, #1
 362 003e FFF7FEFF 		bl	LCD_Position
 363              	.LVL27:
 135:interface.c   ****     LCD_PutChar(endButtomChar);
 364              		.loc 1 135 0
 365 0042 E0B2     		uxtb	r0, r4
 366 0044 FFF7FEFF 		bl	LCD_PutChar
 367              	.LVL28:
 368 0048 F8BD     		pop	{r3, r4, r5, r6, r7, pc}
 369              		.cfi_endproc
 370              	.LFE72:
 371              		.size	writeLCD, .-writeLCD
 372 004a 00BF     		.section	.text.mode_2,"ax",%progbits
 373              		.align	2
ARM GAS  C:\Users\degn\AppData\Local\Temp\ccNY7HAN.s 			page 10


 374              		.global	mode_2
 375              		.thumb
 376              		.thumb_func
 377              		.type	mode_2, %function
 378              	mode_2:
 379              	.LFB74:
 136:interface.c   **** }
 137:interface.c   **** 
 138:interface.c   **** int mode_1()
 139:interface.c   **** {
 140:interface.c   ****     // average
 141:interface.c   ****     int loops = 10;
 142:interface.c   ****     long sum = 0;
 143:interface.c   ****     for (int i = 0; i < loops; i++)
 144:interface.c   ****     {
 145:interface.c   ****         sum = sum + ADC_SAR_1_GetResult16();
 146:interface.c   ****     }
 147:interface.c   ****     sum = sum / loops;
 148:interface.c   ****     convertedResult = adcToDegrees(sum);
 149:interface.c   ****     return convertedResult;
 150:interface.c   **** }
 151:interface.c   **** 
 152:interface.c   **** int mode_2()
 153:interface.c   **** {
 380              		.loc 1 153 0
 381              		.cfi_startproc
 382              		@ args = 0, pretend = 0, frame = 0
 383              		@ frame_needed = 0, uses_anonymous_args = 0
 384 0000 08B5     		push	{r3, lr}
 385              		.cfi_def_cfa_offset 8
 386              		.cfi_offset 3, -8
 387              		.cfi_offset 14, -4
 388              	.LVL29:
 154:interface.c   ****     int jump = 1;
 155:interface.c   ****     if (ADC_SAR_1_GetResult16() > 2200 && ADC_SAR_1_GetResult16() < 3400) // middle
 389              		.loc 1 155 0
 390 0002 FFF7FEFF 		bl	ADC_SAR_1_GetResult16
 391              	.LVL30:
 392 0006 40F69803 		movw	r3, #2200
 393 000a 9842     		cmp	r0, r3
 394 000c 0ADD     		ble	.L29
 395              		.loc 1 155 0 is_stmt 0 discriminator 1
 396 000e FFF7FEFF 		bl	ADC_SAR_1_GetResult16
 397              	.LVL31:
 398 0012 40F64753 		movw	r3, #3399
 399 0016 9842     		cmp	r0, r3
 400 0018 04DC     		bgt	.L29
 156:interface.c   ****     {
 157:interface.c   ****         jump = 1;
 158:interface.c   ****         deg = deg + jump;
 401              		.loc 1 158 0 is_stmt 1
 402 001a 1F4A     		ldr	r2, .L36
 403 001c 9368     		ldr	r3, [r2, #8]
 404 001e 0133     		adds	r3, r3, #1
 405 0020 9360     		str	r3, [r2, #8]
 406 0022 24E0     		b	.L30
 407              	.L29:
ARM GAS  C:\Users\degn\AppData\Local\Temp\ccNY7HAN.s 			page 11


 159:interface.c   ****     }
 160:interface.c   ****     else if (ADC_SAR_1_GetResult16() < 1900 && ADC_SAR_1_GetResult16() > 600) // middle
 408              		.loc 1 160 0
 409 0024 FFF7FEFF 		bl	ADC_SAR_1_GetResult16
 410              	.LVL32:
 411 0028 40F26B73 		movw	r3, #1899
 412 002c 9842     		cmp	r0, r3
 413 002e 09DC     		bgt	.L31
 414              		.loc 1 160 0 is_stmt 0 discriminator 1
 415 0030 FFF7FEFF 		bl	ADC_SAR_1_GetResult16
 416              	.LVL33:
 417 0034 B0F5167F 		cmp	r0, #600
 418 0038 04DD     		ble	.L31
 161:interface.c   ****     {
 162:interface.c   ****         jump = 1;
 163:interface.c   ****         deg = deg - jump;
 419              		.loc 1 163 0 is_stmt 1
 420 003a 174A     		ldr	r2, .L36
 421 003c 9368     		ldr	r3, [r2, #8]
 422 003e 013B     		subs	r3, r3, #1
 423 0040 9360     		str	r3, [r2, #8]
 424 0042 14E0     		b	.L30
 425              	.L31:
 164:interface.c   ****     }
 165:interface.c   ****     else if (ADC_SAR_1_GetResult16() > 3401) // edge
 426              		.loc 1 165 0
 427 0044 FFF7FEFF 		bl	ADC_SAR_1_GetResult16
 428              	.LVL34:
 429 0048 40F64953 		movw	r3, #3401
 430 004c 9842     		cmp	r0, r3
 431 004e 04DD     		ble	.L32
 432              	.LVL35:
 166:interface.c   ****     {
 167:interface.c   ****         jump = 2;
 168:interface.c   ****         deg = deg + jump;
 433              		.loc 1 168 0
 434 0050 114A     		ldr	r2, .L36
 435 0052 9368     		ldr	r3, [r2, #8]
 436 0054 0233     		adds	r3, r3, #2
 437 0056 9360     		str	r3, [r2, #8]
 438 0058 09E0     		b	.L30
 439              	.LVL36:
 440              	.L32:
 169:interface.c   ****     }
 170:interface.c   ****     else if (ADC_SAR_1_GetResult16() < 599) // edge
 441              		.loc 1 170 0
 442 005a FFF7FEFF 		bl	ADC_SAR_1_GetResult16
 443              	.LVL37:
 444 005e 40F25623 		movw	r3, #598
 445 0062 9842     		cmp	r0, r3
 446 0064 03DC     		bgt	.L30
 447              	.LVL38:
 171:interface.c   ****     {
 172:interface.c   ****         jump = 2;
 173:interface.c   ****         deg = deg - jump;
 448              		.loc 1 173 0
 449 0066 0C4A     		ldr	r2, .L36
ARM GAS  C:\Users\degn\AppData\Local\Temp\ccNY7HAN.s 			page 12


 450 0068 9368     		ldr	r3, [r2, #8]
 451 006a 023B     		subs	r3, r3, #2
 452 006c 9360     		str	r3, [r2, #8]
 453              	.LVL39:
 454              	.L30:
 174:interface.c   ****     }
 175:interface.c   ****     // boundaries
 176:interface.c   ****     if (deg < -41)
 455              		.loc 1 176 0
 456 006e 0A4B     		ldr	r3, .L36
 457 0070 9B68     		ldr	r3, [r3, #8]
 458 0072 13F1290F 		cmn	r3, #41
 459 0076 03DA     		bge	.L33
 177:interface.c   ****     {
 178:interface.c   ****         deg = -41;
 460              		.loc 1 178 0
 461 0078 6FF02802 		mvn	r2, #40
 462 007c 064B     		ldr	r3, .L36
 463 007e 9A60     		str	r2, [r3, #8]
 464              	.L33:
 179:interface.c   ****     }
 180:interface.c   ****     if (deg > 41)
 465              		.loc 1 180 0
 466 0080 054B     		ldr	r3, .L36
 467 0082 9B68     		ldr	r3, [r3, #8]
 468 0084 292B     		cmp	r3, #41
 469 0086 02DD     		ble	.L34
 181:interface.c   ****     {
 182:interface.c   ****         deg = 41;
 470              		.loc 1 182 0
 471 0088 2922     		movs	r2, #41
 472 008a 034B     		ldr	r3, .L36
 473 008c 9A60     		str	r2, [r3, #8]
 474              	.L34:
 183:interface.c   ****     }
 184:interface.c   ****     return convertedResult = deg;
 475              		.loc 1 184 0
 476 008e 024B     		ldr	r3, .L36
 477 0090 B3F90800 		ldrsh	r0, [r3, #8]
 478 0094 9881     		strh	r0, [r3, #12]	@ movhi
 185:interface.c   **** }
 479              		.loc 1 185 0
 480 0096 08BD     		pop	{r3, pc}
 481              	.L37:
 482              		.align	2
 483              	.L36:
 484 0098 00000000 		.word	.LANCHOR0
 485              		.cfi_endproc
 486              	.LFE74:
 487              		.size	mode_2, .-mode_2
 488              		.section	.text.mode_3,"ax",%progbits
 489              		.align	2
 490              		.global	mode_3
 491              		.thumb
 492              		.thumb_func
 493              		.type	mode_3, %function
 494              	mode_3:
ARM GAS  C:\Users\degn\AppData\Local\Temp\ccNY7HAN.s 			page 13


 495              	.LFB75:
 186:interface.c   **** 
 187:interface.c   **** void mode_3()
 188:interface.c   **** {
 496              		.loc 1 188 0
 497              		.cfi_startproc
 498              		@ args = 0, pretend = 0, frame = 0
 499              		@ frame_needed = 0, uses_anonymous_args = 0
 500 0000 08B5     		push	{r3, lr}
 501              		.cfi_def_cfa_offset 8
 502              		.cfi_offset 3, -8
 503              		.cfi_offset 14, -4
 189:interface.c   ****     int adc = ADC_SAR_1_GetResult16();
 504              		.loc 1 189 0
 505 0002 FFF7FEFF 		bl	ADC_SAR_1_GetResult16
 506              	.LVL40:
 190:interface.c   ****     if (adc > 2052)
 507              		.loc 1 190 0
 508 0006 40F60403 		movw	r3, #2052
 509 000a 9842     		cmp	r0, r3
 510 000c 12DD     		ble	.L39
 191:interface.c   ****     {
 192:interface.c   ****         PWM_2_WritePeriod(10000/((adc-2050)/300));
 511              		.loc 1 192 0
 512 000e A0F60200 		subw	r0, r0, #2050
 513              	.LVL41:
 514 0012 164B     		ldr	r3, .L43
 515 0014 83FB0023 		smull	r2, r3, r3, r0
 516 0018 C017     		asrs	r0, r0, #31
 517              	.LVL42:
 518 001a C0EB6310 		rsb	r0, r0, r3, asr #5
 519 001e 42F21073 		movw	r3, #10000
 520 0022 93FBF0F0 		sdiv	r0, r3, r0
 521 0026 80B2     		uxth	r0, r0
 522 0028 FFF7FEFF 		bl	PWM_2_WritePeriod
 523              	.LVL43:
 193:interface.c   ****         gradientShift = 1;
 524              		.loc 1 193 0
 525 002c 0122     		movs	r2, #1
 526 002e 104B     		ldr	r3, .L43+4
 527 0030 1A60     		str	r2, [r3]
 528 0032 08BD     		pop	{r3, pc}
 529              	.LVL44:
 530              	.L39:
 194:interface.c   ****     }
 195:interface.c   ****     else if (adc < 2048)
 531              		.loc 1 195 0
 532 0034 B0F5006F 		cmp	r0, #2048
 533 0038 14DA     		bge	.L41
 196:interface.c   ****     {
 197:interface.c   ****         PWM_2_WritePeriod(10000/((2050-adc)/300));
 534              		.loc 1 197 0
 535 003a C0F50060 		rsb	r0, r0, #2048
 536              	.LVL45:
 537 003e 0230     		adds	r0, r0, #2
 538 0040 0A4B     		ldr	r3, .L43
 539 0042 83FB0023 		smull	r2, r3, r3, r0
ARM GAS  C:\Users\degn\AppData\Local\Temp\ccNY7HAN.s 			page 14


 540 0046 C017     		asrs	r0, r0, #31
 541 0048 C0EB6310 		rsb	r0, r0, r3, asr #5
 542 004c 42F21073 		movw	r3, #10000
 543 0050 93FBF0F0 		sdiv	r0, r3, r0
 544 0054 80B2     		uxth	r0, r0
 545 0056 FFF7FEFF 		bl	PWM_2_WritePeriod
 546              	.LVL46:
 198:interface.c   ****         gradientShift = -1;
 547              		.loc 1 198 0
 548 005a 4FF0FF32 		mov	r2, #-1
 549 005e 044B     		ldr	r3, .L43+4
 550 0060 1A60     		str	r2, [r3]
 551 0062 08BD     		pop	{r3, pc}
 552              	.LVL47:
 553              	.L41:
 199:interface.c   ****     }
 200:interface.c   ****     else 
 201:interface.c   ****     {
 202:interface.c   ****         gradientShift = 0; 
 554              		.loc 1 202 0
 555 0064 0022     		movs	r2, #0
 556 0066 024B     		ldr	r3, .L43+4
 557 0068 1A60     		str	r2, [r3]
 558 006a 08BD     		pop	{r3, pc}
 559              	.L44:
 560              		.align	2
 561              	.L43:
 562 006c B5814E1B 		.word	458129845
 563 0070 00000000 		.word	.LANCHOR0
 564              		.cfi_endproc
 565              	.LFE75:
 566              		.size	mode_3, .-mode_3
 567              		.section	.text.motorSwitch,"ax",%progbits
 568              		.align	2
 569              		.global	motorSwitch
 570              		.thumb
 571              		.thumb_func
 572              		.type	motorSwitch, %function
 573              	motorSwitch:
 574              	.LFB76:
 203:interface.c   ****     }
 204:interface.c   **** }
 205:interface.c   **** 
 206:interface.c   **** int motorSwitch()
 207:interface.c   **** {
 575              		.loc 1 207 0
 576              		.cfi_startproc
 577              		@ args = 0, pretend = 0, frame = 0
 578              		@ frame_needed = 0, uses_anonymous_args = 0
 579 0000 08B5     		push	{r3, lr}
 580              		.cfi_def_cfa_offset 8
 581              		.cfi_offset 3, -8
 582              		.cfi_offset 14, -4
 208:interface.c   ****     return MotorSwitchPin_Read();
 583              		.loc 1 208 0
 584 0002 FFF7FEFF 		bl	MotorSwitchPin_Read
 585              	.LVL48:
ARM GAS  C:\Users\degn\AppData\Local\Temp\ccNY7HAN.s 			page 15


 209:interface.c   **** }
 586              		.loc 1 209 0
 587 0006 08BD     		pop	{r3, pc}
 588              		.cfi_endproc
 589              	.LFE76:
 590              		.size	motorSwitch, .-motorSwitch
 591              		.section	.text.ISR_print_handler,"ax",%progbits
 592              		.align	2
 593              		.global	ISR_print_handler
 594              		.thumb
 595              		.thumb_func
 596              		.type	ISR_print_handler, %function
 597              	ISR_print_handler:
 598              	.LFB66:
  65:interface.c   ****     if (motorSwitch())
 599              		.loc 1 65 0
 600              		.cfi_startproc
 601              		@ args = 0, pretend = 0, frame = 0
 602              		@ frame_needed = 0, uses_anonymous_args = 0
 603 0000 10B5     		push	{r4, lr}
 604              		.cfi_def_cfa_offset 8
 605              		.cfi_offset 4, -8
 606              		.cfi_offset 14, -4
  66:interface.c   ****     {
 607              		.loc 1 66 0
 608 0002 FFF7FEFF 		bl	motorSwitch
 609              	.LVL49:
 610 0006 0028     		cmp	r0, #0
 611 0008 30D0     		beq	.L47
  68:interface.c   ****         {
 612              		.loc 1 68 0
 613 000a 194B     		ldr	r3, .L52
 614 000c 1B68     		ldr	r3, [r3]
 615 000e 012B     		cmp	r3, #1
 616 0010 0ED1     		bne	.L49
  70:interface.c   ****             writeLCD("mode 1", unlock, LCDbuffer, degree);
 617              		.loc 1 70 0
 618 0012 184C     		ldr	r4, .L52+4
 619 0014 184B     		ldr	r3, .L52+8
 620 0016 B3F90C20 		ldrsh	r2, [r3, #12]
 621 001a 1849     		ldr	r1, .L52+12
 622 001c 2046     		mov	r0, r4
 623 001e FFF7FEFF 		bl	sprintf
 624              	.LVL50:
  71:interface.c   ****         }
 625              		.loc 1 71 0
 626 0022 0023     		movs	r3, #0
 627 0024 2246     		mov	r2, r4
 628 0026 0321     		movs	r1, #3
 629 0028 1548     		ldr	r0, .L52+16
 630 002a FFF7FEFF 		bl	writeLCD
 631              	.LVL51:
 632 002e 10BD     		pop	{r4, pc}
 633              	.L49:
  73:interface.c   ****         {
 634              		.loc 1 73 0
 635 0030 022B     		cmp	r3, #2
ARM GAS  C:\Users\degn\AppData\Local\Temp\ccNY7HAN.s 			page 16


 636 0032 0ED1     		bne	.L50
  75:interface.c   ****             writeLCD("mode 2", lock, LCDbuffer, degree);
 637              		.loc 1 75 0
 638 0034 0F4C     		ldr	r4, .L52+4
 639 0036 104B     		ldr	r3, .L52+8
 640 0038 B3F90C20 		ldrsh	r2, [r3, #12]
 641 003c 0F49     		ldr	r1, .L52+12
 642 003e 2046     		mov	r0, r4
 643 0040 FFF7FEFF 		bl	sprintf
 644              	.LVL52:
  76:interface.c   ****         }
 645              		.loc 1 76 0
 646 0044 0023     		movs	r3, #0
 647 0046 2246     		mov	r2, r4
 648 0048 0121     		movs	r1, #1
 649 004a 0E48     		ldr	r0, .L52+20
 650 004c FFF7FEFF 		bl	writeLCD
 651              	.LVL53:
 652 0050 10BD     		pop	{r4, pc}
 653              	.L50:
  80:interface.c   ****             writeLCD("mode 3", lock, LCDbuffer, degree);
 654              		.loc 1 80 0
 655 0052 084C     		ldr	r4, .L52+4
 656 0054 084B     		ldr	r3, .L52+8
 657 0056 5A68     		ldr	r2, [r3, #4]
 658 0058 0849     		ldr	r1, .L52+12
 659 005a 2046     		mov	r0, r4
 660 005c FFF7FEFF 		bl	sprintf
 661              	.LVL54:
  81:interface.c   ****         }  
 662              		.loc 1 81 0
 663 0060 0023     		movs	r3, #0
 664 0062 2246     		mov	r2, r4
 665 0064 0121     		movs	r1, #1
 666 0066 0848     		ldr	r0, .L52+24
 667 0068 FFF7FEFF 		bl	writeLCD
 668              	.LVL55:
 669              	.L47:
 670 006c 10BD     		pop	{r4, pc}
 671              	.L53:
 672 006e 00BF     		.align	2
 673              	.L52:
 674 0070 00000000 		.word	.LANCHOR1
 675 0074 00000000 		.word	LCDbuffer
 676 0078 00000000 		.word	.LANCHOR0
 677 007c 18000000 		.word	.LC2
 678 0080 28000000 		.word	.LC3
 679 0084 30000000 		.word	.LC4
 680 0088 38000000 		.word	.LC5
 681              		.cfi_endproc
 682              	.LFE66:
 683              		.size	ISR_print_handler, .-ISR_print_handler
 684              		.section	.text.adcToDegrees,"ax",%progbits
 685              		.align	2
 686              		.global	adcToDegrees
 687              		.thumb
 688              		.thumb_func
ARM GAS  C:\Users\degn\AppData\Local\Temp\ccNY7HAN.s 			page 17


 689              		.type	adcToDegrees, %function
 690              	adcToDegrees:
 691              	.LFB77:
 210:interface.c   **** 
 211:interface.c   **** int adcToDegrees(int adc_value)
 212:interface.c   **** {
 692              		.loc 1 212 0
 693              		.cfi_startproc
 694              		@ args = 0, pretend = 0, frame = 0
 695              		@ frame_needed = 0, uses_anonymous_args = 0
 696              		@ link register save eliminated.
 697              	.LVL56:
 213:interface.c   ****     // Define constants
 214:interface.c   ****     const int adc_min = 30;   // ADC value corresponding to -41 degrees
 215:interface.c   ****     const int adc_max = 4050; // ADC value corresponding to +41 degrees
 216:interface.c   ****     const int deg_min = -41;  // Minimum degrees
 217:interface.c   ****     const int deg_max = 41;   // Maximum degrees
 218:interface.c   **** 
 219:interface.c   ****     // Check if adc_value is out of bounds
 220:interface.c   ****     if (adc_value < adc_min)
 698              		.loc 1 220 0
 699 0000 1D28     		cmp	r0, #29
 700 0002 04DD     		ble	.L56
 221:interface.c   ****     {
 222:interface.c   ****         adc_value = adc_min;
 223:interface.c   ****     }
 224:interface.c   ****     else if (adc_value > adc_max)
 701              		.loc 1 224 0
 702 0004 40F6D273 		movw	r3, #4050
 703 0008 9842     		cmp	r0, r3
 704 000a 02DC     		bgt	.L57
 705 000c 03E0     		b	.L55
 706              	.L56:
 222:interface.c   ****     }
 707              		.loc 1 222 0
 708 000e 1E20     		movs	r0, #30
 709              	.LVL57:
 710 0010 01E0     		b	.L55
 711              	.LVL58:
 712              	.L57:
 225:interface.c   ****     {
 226:interface.c   ****         adc_value = adc_max;
 713              		.loc 1 226 0
 714 0012 40F6D270 		movw	r0, #4050
 715              	.LVL59:
 716              	.L55:
 227:interface.c   ****     }
 228:interface.c   **** 
 229:interface.c   ****     // Calculate degrees using linear interpolation formula
 230:interface.c   ****     int degrees = ((adc_value - adc_min) * (deg_max - deg_min)) / (adc_max - adc_min) + deg_min;
 717              		.loc 1 230 0
 718 0016 1E38     		subs	r0, r0, #30
 719              	.LVL60:
 720 0018 5223     		movs	r3, #82
 721 001a 03FB00F3 		mul	r3, r3, r0
 722 001e 0448     		ldr	r0, .L58
 723              	.LVL61:
ARM GAS  C:\Users\degn\AppData\Local\Temp\ccNY7HAN.s 			page 18


 724 0020 80FB0320 		smull	r2, r0, r0, r3
 725 0024 DB17     		asrs	r3, r3, #31
 726 0026 C3EBA020 		rsb	r0, r3, r0, asr #10
 727              	.LVL62:
 231:interface.c   **** 
 232:interface.c   ****     return degrees;
 233:interface.c   **** }...
 728              		.loc 1 233 0
 729 002a 2938     		subs	r0, r0, #41
 730              	.LVL63:
 731 002c 7047     		bx	lr
 732              	.L59:
 733 002e 00BF     		.align	2
 734              	.L58:
 735 0030 4DBF3541 		.word	1094041421
 736              		.cfi_endproc
 737              	.LFE77:
 738              		.size	adcToDegrees, .-adcToDegrees
 739              		.section	.text.mode_1,"ax",%progbits
 740              		.align	2
 741              		.global	mode_1
 742              		.thumb
 743              		.thumb_func
 744              		.type	mode_1, %function
 745              	mode_1:
 746              	.LFB73:
 139:interface.c   **** {
 747              		.loc 1 139 0
 748              		.cfi_startproc
 749              		@ args = 0, pretend = 0, frame = 0
 750              		@ frame_needed = 0, uses_anonymous_args = 0
 751 0000 38B5     		push	{r3, r4, r5, lr}
 752              		.cfi_def_cfa_offset 16
 753              		.cfi_offset 3, -16
 754              		.cfi_offset 4, -12
 755              		.cfi_offset 5, -8
 756              		.cfi_offset 14, -4
 757              	.LVL64:
 758              	.LBB2:
 143:interface.c   ****     for (int i = 0; i < loops; i++)
 759              		.loc 1 143 0
 760 0002 0024     		movs	r4, #0
 761              	.LBE2:
 142:interface.c   ****     long sum = 0;
 762              		.loc 1 142 0
 763 0004 2546     		mov	r5, r4
 764              	.LBB3:
 143:interface.c   ****     for (int i = 0; i < loops; i++)
 765              		.loc 1 143 0
 766 0006 03E0     		b	.L61
 767              	.LVL65:
 768              	.L62:
 145:interface.c   ****         sum = sum + ADC_SAR_1_GetResult16();
 769              		.loc 1 145 0 discriminator 3
 770 0008 FFF7FEFF 		bl	ADC_SAR_1_GetResult16
 771              	.LVL66:
 772 000c 0544     		add	r5, r5, r0
ARM GAS  C:\Users\degn\AppData\Local\Temp\ccNY7HAN.s 			page 19


 773              	.LVL67:
 143:interface.c   ****     for (int i = 0; i < loops; i++)
 774              		.loc 1 143 0 discriminator 3
 775 000e 0134     		adds	r4, r4, #1
 776              	.LVL68:
 777              	.L61:
 143:interface.c   ****     for (int i = 0; i < loops; i++)
 778              		.loc 1 143 0 is_stmt 0 discriminator 1
 779 0010 092C     		cmp	r4, #9
 780 0012 F9DD     		ble	.L62
 781              	.LBE3:
 147:interface.c   ****     sum = sum / loops;
 782              		.loc 1 147 0 is_stmt 1
 783 0014 0548     		ldr	r0, .L64
 784 0016 80FB0530 		smull	r3, r0, r0, r5
 785 001a ED17     		asrs	r5, r5, #31
 786              	.LVL69:
 148:interface.c   ****     convertedResult = adcToDegrees(sum);
 787              		.loc 1 148 0
 788 001c C5EBA000 		rsb	r0, r5, r0, asr #2
 789              	.LVL70:
 790 0020 FFF7FEFF 		bl	adcToDegrees
 791              	.LVL71:
 792 0024 00B2     		sxth	r0, r0
 793 0026 024B     		ldr	r3, .L64+4
 794 0028 9881     		strh	r0, [r3, #12]	@ movhi
 150:interface.c   **** }
 795              		.loc 1 150 0
 796 002a 38BD     		pop	{r3, r4, r5, pc}
 797              	.LVL72:
 798              	.L65:
 799              		.align	2
 800              	.L64:
 801 002c 67666666 		.word	1717986919
 802 0030 00000000 		.word	.LANCHOR0
 803              		.cfi_endproc
 804              	.LFE73:
 805              		.size	mode_1, .-mode_1
 806              		.global	gradientCount
 807              		.global	gradientShift
 808              		.global	pass
 809              		.comm	tempbuffer,20,4
 810              		.global	block
 811              		.comm	LCDbuffer,20,4
 812              		.global	deg
 813              		.global	toggle
 814              		.global	convertedResult
 815              		.data
 816              		.align	2
 817              		.set	.LANCHOR1,. + 0
 818              		.type	toggle, %object
 819              		.size	toggle, 4
 820              	toggle:
 821 0000 03000000 		.word	3
 822              		.type	pass, %object
 823              		.size	pass, 4
 824              	pass:
ARM GAS  C:\Users\degn\AppData\Local\Temp\ccNY7HAN.s 			page 20


 825 0004 01000000 		.word	1
 826              		.section	.rodata.str1.4,"aMS",%progbits,1
 827              		.align	2
 828              	.LC0:
 829 0000 53746172 		.ascii	"Starting\000"
 829      74696E67 
 829      00
 830 0009 000000   		.space	3
 831              	.LC1:
 832 000c 4170706C 		.ascii	"Application\000"
 832      69636174 
 832      696F6E00 
 833              	.LC2:
 834 0018 25692020 		.ascii	"%i             \000"
 834      20202020 
 834      20202020 
 834      20202000 
 835              	.LC3:
 836 0028 6D6F6465 		.ascii	"mode 1\000"
 836      203100
 837 002f 00       		.space	1
 838              	.LC4:
 839 0030 6D6F6465 		.ascii	"mode 2\000"
 839      203200
 840 0037 00       		.space	1
 841              	.LC5:
 842 0038 6D6F6465 		.ascii	"mode 3\000"
 842      203300
 843              		.bss
 844              		.align	2
 845              		.set	.LANCHOR0,. + 0
 846              		.type	gradientShift, %object
 847              		.size	gradientShift, 4
 848              	gradientShift:
 849 0000 00000000 		.space	4
 850              		.type	gradientCount, %object
 851              		.size	gradientCount, 4
 852              	gradientCount:
 853 0004 00000000 		.space	4
 854              		.type	deg, %object
 855              		.size	deg, 4
 856              	deg:
 857 0008 00000000 		.space	4
 858              		.type	convertedResult, %object
 859              		.size	convertedResult, 2
 860              	convertedResult:
 861 000c 0000     		.space	2
 862 000e 0000     		.space	2
 863              		.type	block, %object
 864              		.size	block, 4
 865              	block:
 866 0010 00000000 		.space	4
 867              		.text
 868              	.Letext0:
 869              		.file 2 "c:\\program files (x86)\\cypress\\psoc creator\\4.4\\psoc creator\\import\\gnu\\arm\\5.4.
 870              		.file 3 "c:\\program files (x86)\\cypress\\psoc creator\\4.4\\psoc creator\\import\\gnu\\arm\\5.4.
 871              		.file 4 "Generated_Source\\PSoC5/core_cm3.h"
ARM GAS  C:\Users\degn\AppData\Local\Temp\ccNY7HAN.s 			page 21


 872              		.file 5 "Generated_Source\\PSoC5/LCD.h"
 873              		.file 6 "Generated_Source\\PSoC5/CyLib.h"
 874              		.file 7 "Generated_Source\\PSoC5/ADC_SAR_1.h"
 875              		.file 8 "Generated_Source\\PSoC5/PWM_1.h"
 876              		.file 9 "Generated_Source\\PSoC5/PWM_2.h"
 877              		.file 10 "Generated_Source\\PSoC5/isr_toggle.h"
 878              		.file 11 "Generated_Source\\PSoC5/isr_print.h"
 879              		.file 12 "Generated_Source\\PSoC5/isr_gradient.h"
 880              		.file 13 "Generated_Source\\PSoC5/MotorSwitchPin.h"
 881              		.file 14 "c:\\program files (x86)\\cypress\\psoc creator\\4.4\\psoc creator\\import\\gnu\\arm\\5.4
 882              		.section	.debug_info,"",%progbits
 883              	.Ldebug_info0:
 884 0000 85070000 		.4byte	0x785
 885 0004 0400     		.2byte	0x4
 886 0006 00000000 		.4byte	.Ldebug_abbrev0
 887 000a 04       		.byte	0x4
 888 000b 01       		.uleb128 0x1
 889 000c A2030000 		.4byte	.LASF72
 890 0010 0C       		.byte	0xc
 891 0011 67030000 		.4byte	.LASF73
 892 0015 B6010000 		.4byte	.LASF74
 893 0019 18000000 		.4byte	.Ldebug_ranges0+0x18
 894 001d 00000000 		.4byte	0
 895 0021 00000000 		.4byte	.Ldebug_line0
 896 0025 02       		.uleb128 0x2
 897 0026 01       		.byte	0x1
 898 0027 06       		.byte	0x6
 899 0028 84010000 		.4byte	.LASF0
 900 002c 02       		.uleb128 0x2
 901 002d 01       		.byte	0x1
 902 002e 08       		.byte	0x8
 903 002f 6E010000 		.4byte	.LASF1
 904 0033 03       		.uleb128 0x3
 905 0034 5D030000 		.4byte	.LASF4
 906 0038 02       		.byte	0x2
 907 0039 29       		.byte	0x29
 908 003a 3E000000 		.4byte	0x3e
 909 003e 02       		.uleb128 0x2
 910 003f 02       		.byte	0x2
 911 0040 05       		.byte	0x5
 912 0041 4C000000 		.4byte	.LASF2
 913 0045 02       		.uleb128 0x2
 914 0046 02       		.byte	0x2
 915 0047 07       		.byte	0x7
 916 0048 70020000 		.4byte	.LASF3
 917 004c 03       		.uleb128 0x3
 918 004d 53030000 		.4byte	.LASF5
 919 0051 02       		.byte	0x2
 920 0052 3F       		.byte	0x3f
 921 0053 57000000 		.4byte	0x57
 922 0057 02       		.uleb128 0x2
 923 0058 04       		.byte	0x4
 924 0059 05       		.byte	0x5
 925 005a F4000000 		.4byte	.LASF6
 926 005e 02       		.uleb128 0x2
 927 005f 04       		.byte	0x4
 928 0060 07       		.byte	0x7
ARM GAS  C:\Users\degn\AppData\Local\Temp\ccNY7HAN.s 			page 22


 929 0061 E9020000 		.4byte	.LASF7
 930 0065 02       		.uleb128 0x2
 931 0066 08       		.byte	0x8
 932 0067 05       		.byte	0x5
 933 0068 64000000 		.4byte	.LASF8
 934 006c 02       		.uleb128 0x2
 935 006d 08       		.byte	0x8
 936 006e 07       		.byte	0x7
 937 006f 9F010000 		.4byte	.LASF9
 938 0073 04       		.uleb128 0x4
 939 0074 04       		.byte	0x4
 940 0075 05       		.byte	0x5
 941 0076 696E7400 		.ascii	"int\000"
 942 007a 02       		.uleb128 0x2
 943 007b 04       		.byte	0x4
 944 007c 07       		.byte	0x7
 945 007d 23020000 		.4byte	.LASF10
 946 0081 03       		.uleb128 0x3
 947 0082 C1020000 		.4byte	.LASF11
 948 0086 03       		.byte	0x3
 949 0087 20       		.byte	0x20
 950 0088 33000000 		.4byte	0x33
 951 008c 03       		.uleb128 0x3
 952 008d AC020000 		.4byte	.LASF12
 953 0091 03       		.byte	0x3
 954 0092 2C       		.byte	0x2c
 955 0093 4C000000 		.4byte	0x4c
 956 0097 02       		.uleb128 0x2
 957 0098 04       		.byte	0x4
 958 0099 04       		.byte	0x4
 959 009a CC000000 		.4byte	.LASF13
 960 009e 02       		.uleb128 0x2
 961 009f 08       		.byte	0x8
 962 00a0 04       		.byte	0x4
 963 00a1 0E030000 		.4byte	.LASF14
 964 00a5 02       		.uleb128 0x2
 965 00a6 01       		.byte	0x1
 966 00a7 08       		.byte	0x8
 967 00a8 88020000 		.4byte	.LASF15
 968 00ac 02       		.uleb128 0x2
 969 00ad 08       		.byte	0x8
 970 00ae 04       		.byte	0x4
 971 00af 00000000 		.4byte	.LASF16
 972 00b3 02       		.uleb128 0x2
 973 00b4 04       		.byte	0x4
 974 00b5 07       		.byte	0x7
 975 00b6 56000000 		.4byte	.LASF17
 976 00ba 05       		.uleb128 0x5
 977 00bb 04       		.byte	0x4
 978 00bc A5000000 		.4byte	0xa5
 979 00c0 06       		.uleb128 0x6
 980 00c1 9B030000 		.4byte	.LASF75
 981 00c5 01       		.byte	0x1
 982 00c6 2C000000 		.4byte	0x2c
 983 00ca 01       		.byte	0x1
 984 00cb 10       		.byte	0x10
 985 00cc E9000000 		.4byte	0xe9
ARM GAS  C:\Users\degn\AppData\Local\Temp\ccNY7HAN.s 			page 23


 986 00d0 07       		.uleb128 0x7
 987 00d1 94030000 		.4byte	.LASF18
 988 00d5 00       		.byte	0
 989 00d6 07       		.uleb128 0x7
 990 00d7 B4020000 		.4byte	.LASF19
 991 00db 01       		.byte	0x1
 992 00dc 07       		.uleb128 0x7
 993 00dd 39030000 		.4byte	.LASF20
 994 00e1 02       		.byte	0x2
 995 00e2 07       		.uleb128 0x7
 996 00e3 5D020000 		.4byte	.LASF21
 997 00e7 03       		.byte	0x3
 998 00e8 00       		.byte	0
 999 00e9 08       		.uleb128 0x8
 1000 00ea 32010000 		.4byte	.LASF22
 1001 00ee 01       		.byte	0x1
 1002 00ef 18       		.byte	0x18
 1003 00f0 00000000 		.4byte	.LFB64
 1004 00f4 38000000 		.4byte	.LFE64-.LFB64
 1005 00f8 01       		.uleb128 0x1
 1006 00f9 9C       		.byte	0x9c
 1007 00fa 08       		.uleb128 0x8
 1008 00fb 3F040000 		.4byte	.LASF23
 1009 00ff 01       		.byte	0x1
 1010 0100 2E       		.byte	0x2e
 1011 0101 00000000 		.4byte	.LFB65
 1012 0105 38000000 		.4byte	.LFE65-.LFB65
 1013 0109 01       		.uleb128 0x1
 1014 010a 9C       		.byte	0x9c
 1015 010b 09       		.uleb128 0x9
 1016 010c 80030000 		.4byte	.LASF24
 1017 0110 01       		.byte	0x1
 1018 0111 5F       		.byte	0x5f
 1019 0112 00000000 		.4byte	.LFB68
 1020 0116 3C000000 		.4byte	.LFE68-.LFB68
 1021 011a 01       		.uleb128 0x1
 1022 011b 9C       		.byte	0x9c
 1023 011c AC010000 		.4byte	0x1ac
 1024 0120 0A       		.uleb128 0xa
 1025 0121 08000000 		.4byte	.LVL0
 1026 0125 CD060000 		.4byte	0x6cd
 1027 0129 33010000 		.4byte	0x133
 1028 012d 0B       		.uleb128 0xb
 1029 012e 01       		.uleb128 0x1
 1030 012f 50       		.byte	0x50
 1031 0130 01       		.uleb128 0x1
 1032 0131 31       		.byte	0x31
 1033 0132 00       		.byte	0
 1034 0133 0C       		.uleb128 0xc
 1035 0134 0C000000 		.4byte	.LVL1
 1036 0138 D8060000 		.4byte	0x6d8
 1037 013c 0A       		.uleb128 0xa
 1038 013d 14000000 		.4byte	.LVL2
 1039 0141 E3060000 		.4byte	0x6e3
 1040 0145 54010000 		.4byte	0x154
 1041 0149 0B       		.uleb128 0xb
 1042 014a 01       		.uleb128 0x1
ARM GAS  C:\Users\degn\AppData\Local\Temp\ccNY7HAN.s 			page 24


 1043 014b 50       		.byte	0x50
 1044 014c 01       		.uleb128 0x1
 1045 014d 30       		.byte	0x30
 1046 014e 0B       		.uleb128 0xb
 1047 014f 01       		.uleb128 0x1
 1048 0150 51       		.byte	0x51
 1049 0151 01       		.uleb128 0x1
 1050 0152 30       		.byte	0x30
 1051 0153 00       		.byte	0
 1052 0154 0A       		.uleb128 0xa
 1053 0155 1A000000 		.4byte	.LVL3
 1054 0159 EE060000 		.4byte	0x6ee
 1055 015d 6B010000 		.4byte	0x16b
 1056 0161 0B       		.uleb128 0xb
 1057 0162 01       		.uleb128 0x1
 1058 0163 50       		.byte	0x50
 1059 0164 05       		.uleb128 0x5
 1060 0165 03       		.byte	0x3
 1061 0166 00000000 		.4byte	.LC0
 1062 016a 00       		.byte	0
 1063 016b 0A       		.uleb128 0xa
 1064 016c 22000000 		.4byte	.LVL4
 1065 0170 E3060000 		.4byte	0x6e3
 1066 0174 83010000 		.4byte	0x183
 1067 0178 0B       		.uleb128 0xb
 1068 0179 01       		.uleb128 0x1
 1069 017a 50       		.byte	0x50
 1070 017b 01       		.uleb128 0x1
 1071 017c 31       		.byte	0x31
 1072 017d 0B       		.uleb128 0xb
 1073 017e 01       		.uleb128 0x1
 1074 017f 51       		.byte	0x51
 1075 0180 01       		.uleb128 0x1
 1076 0181 30       		.byte	0x30
 1077 0182 00       		.byte	0
 1078 0183 0A       		.uleb128 0xa
 1079 0184 28000000 		.4byte	.LVL5
 1080 0188 EE060000 		.4byte	0x6ee
 1081 018c 9A010000 		.4byte	0x19a
 1082 0190 0B       		.uleb128 0xb
 1083 0191 01       		.uleb128 0x1
 1084 0192 50       		.byte	0x50
 1085 0193 05       		.uleb128 0x5
 1086 0194 03       		.byte	0x3
 1087 0195 0C000000 		.4byte	.LC1
 1088 0199 00       		.byte	0
 1089 019a 0D       		.uleb128 0xd
 1090 019b 30000000 		.4byte	.LVL6
 1091 019f F9060000 		.4byte	0x6f9
 1092 01a3 0B       		.uleb128 0xb
 1093 01a4 01       		.uleb128 0x1
 1094 01a5 50       		.byte	0x50
 1095 01a6 03       		.uleb128 0x3
 1096 01a7 0A       		.byte	0xa
 1097 01a8 E803     		.2byte	0x3e8
 1098 01aa 00       		.byte	0
 1099 01ab 00       		.byte	0
ARM GAS  C:\Users\degn\AppData\Local\Temp\ccNY7HAN.s 			page 25


 1100 01ac 09       		.uleb128 0x9
 1101 01ad 0A010000 		.4byte	.LASF25
 1102 01b1 01       		.byte	0x1
 1103 01b2 6A       		.byte	0x6a
 1104 01b3 00000000 		.4byte	.LFB69
 1105 01b7 0C000000 		.4byte	.LFE69-.LFB69
 1106 01bb 01       		.uleb128 0x1
 1107 01bc 9C       		.byte	0x9c
 1108 01bd D4010000 		.4byte	0x1d4
 1109 01c1 0C       		.uleb128 0xc
 1110 01c2 06000000 		.4byte	.LVL7
 1111 01c6 04070000 		.4byte	0x704
 1112 01ca 0C       		.uleb128 0xc
 1113 01cb 0A000000 		.4byte	.LVL8
 1114 01cf 0F070000 		.4byte	0x70f
 1115 01d3 00       		.byte	0
 1116 01d4 09       		.uleb128 0x9
 1117 01d5 30030000 		.4byte	.LASF26
 1118 01d9 01       		.byte	0x1
 1119 01da 70       		.byte	0x70
 1120 01db 00000000 		.4byte	.LFB70
 1121 01df 0C000000 		.4byte	.LFE70-.LFB70
 1122 01e3 01       		.uleb128 0x1
 1123 01e4 9C       		.byte	0x9c
 1124 01e5 FC010000 		.4byte	0x1fc
 1125 01e9 0C       		.uleb128 0xc
 1126 01ea 06000000 		.4byte	.LVL9
 1127 01ee 1A070000 		.4byte	0x71a
 1128 01f2 0C       		.uleb128 0xc
 1129 01f3 0A000000 		.4byte	.LVL10
 1130 01f7 25070000 		.4byte	0x725
 1131 01fb 00       		.byte	0
 1132 01fc 09       		.uleb128 0x9
 1133 01fd 92000000 		.4byte	.LASF27
 1134 0201 01       		.byte	0x1
 1135 0202 76       		.byte	0x76
 1136 0203 00000000 		.4byte	.LFB71
 1137 0207 24000000 		.4byte	.LFE71-.LFB71
 1138 020b 01       		.uleb128 0x1
 1139 020c 9C       		.byte	0x9c
 1140 020d 53020000 		.4byte	0x253
 1141 0211 0A       		.uleb128 0xa
 1142 0212 08000000 		.4byte	.LVL11
 1143 0216 30070000 		.4byte	0x730
 1144 021a 28020000 		.4byte	0x228
 1145 021e 0B       		.uleb128 0xb
 1146 021f 01       		.uleb128 0x1
 1147 0220 50       		.byte	0x50
 1148 0221 05       		.uleb128 0x5
 1149 0222 03       		.byte	0x3
 1150 0223 00000000 		.4byte	ISR_toggle_handler
 1151 0227 00       		.byte	0
 1152 0228 0A       		.uleb128 0xa
 1153 0229 0E000000 		.4byte	.LVL12
 1154 022d 3B070000 		.4byte	0x73b
 1155 0231 3F020000 		.4byte	0x23f
 1156 0235 0B       		.uleb128 0xb
ARM GAS  C:\Users\degn\AppData\Local\Temp\ccNY7HAN.s 			page 26


 1157 0236 01       		.uleb128 0x1
 1158 0237 50       		.byte	0x50
 1159 0238 05       		.uleb128 0x5
 1160 0239 03       		.byte	0x3
 1161 023a 00000000 		.4byte	ISR_print_handler
 1162 023e 00       		.byte	0
 1163 023f 0D       		.uleb128 0xd
 1164 0240 14000000 		.4byte	.LVL13
 1165 0244 46070000 		.4byte	0x746
 1166 0248 0B       		.uleb128 0xb
 1167 0249 01       		.uleb128 0x1
 1168 024a 50       		.byte	0x50
 1169 024b 05       		.uleb128 0x5
 1170 024c 03       		.byte	0x3
 1171 024d 00000000 		.4byte	ISR_gradient_handler
 1172 0251 00       		.byte	0
 1173 0252 00       		.byte	0
 1174 0253 09       		.uleb128 0x9
 1175 0254 90010000 		.4byte	.LASF28
 1176 0258 01       		.byte	0x1
 1177 0259 57       		.byte	0x57
 1178 025a 00000000 		.4byte	.LFB67
 1179 025e 14000000 		.4byte	.LFE67-.LFB67
 1180 0262 01       		.uleb128 0x1
 1181 0263 9C       		.byte	0x9c
 1182 0264 8D020000 		.4byte	0x28d
 1183 0268 0C       		.uleb128 0xc
 1184 0269 06000000 		.4byte	.LVL14
 1185 026d 0B010000 		.4byte	0x10b
 1186 0271 0C       		.uleb128 0xc
 1187 0272 0A000000 		.4byte	.LVL15
 1188 0276 FC010000 		.4byte	0x1fc
 1189 027a 0C       		.uleb128 0xc
 1190 027b 0E000000 		.4byte	.LVL16
 1191 027f D4010000 		.4byte	0x1d4
 1192 0283 0C       		.uleb128 0xc
 1193 0284 12000000 		.4byte	.LVL17
 1194 0288 AC010000 		.4byte	0x1ac
 1195 028c 00       		.byte	0
 1196 028d 0E       		.uleb128 0xe
 1197 028e 13010000 		.4byte	.LASF32
 1198 0292 01       		.byte	0x1
 1199 0293 7D       		.byte	0x7d
 1200 0294 00000000 		.4byte	.LFB72
 1201 0298 4A000000 		.4byte	.LFE72-.LFB72
 1202 029c 01       		.uleb128 0x1
 1203 029d 9C       		.byte	0x9c
 1204 029e 9E030000 		.4byte	0x39e
 1205 02a2 0F       		.uleb128 0xf
 1206 02a3 746F7000 		.ascii	"top\000"
 1207 02a7 01       		.byte	0x1
 1208 02a8 7D       		.byte	0x7d
 1209 02a9 BA000000 		.4byte	0xba
 1210 02ad 00000000 		.4byte	.LLST0
 1211 02b1 10       		.uleb128 0x10
 1212 02b2 89030000 		.4byte	.LASF29
 1213 02b6 01       		.byte	0x1
ARM GAS  C:\Users\degn\AppData\Local\Temp\ccNY7HAN.s 			page 27


 1214 02b7 7D       		.byte	0x7d
 1215 02b8 73000000 		.4byte	0x73
 1216 02bc 1E000000 		.4byte	.LLST1
 1217 02c0 10       		.uleb128 0x10
 1218 02c1 FD000000 		.4byte	.LASF30
 1219 02c5 01       		.byte	0x1
 1220 02c6 7D       		.byte	0x7d
 1221 02c7 BA000000 		.4byte	0xba
 1222 02cb 3C000000 		.4byte	.LLST2
 1223 02cf 10       		.uleb128 0x10
 1224 02d0 E6000000 		.4byte	.LASF31
 1225 02d4 01       		.byte	0x1
 1226 02d5 7D       		.byte	0x7d
 1227 02d6 73000000 		.4byte	0x73
 1228 02da 5A000000 		.4byte	.LLST3
 1229 02de 0A       		.uleb128 0xa
 1230 02df 10000000 		.4byte	.LVL20
 1231 02e3 CD060000 		.4byte	0x6cd
 1232 02e7 F1020000 		.4byte	0x2f1
 1233 02eb 0B       		.uleb128 0xb
 1234 02ec 01       		.uleb128 0x1
 1235 02ed 50       		.byte	0x50
 1236 02ee 01       		.uleb128 0x1
 1237 02ef 31       		.byte	0x31
 1238 02f0 00       		.byte	0
 1239 02f1 0A       		.uleb128 0xa
 1240 02f2 18000000 		.4byte	.LVL21
 1241 02f6 E3060000 		.4byte	0x6e3
 1242 02fa 09030000 		.4byte	0x309
 1243 02fe 0B       		.uleb128 0xb
 1244 02ff 01       		.uleb128 0x1
 1245 0300 50       		.byte	0x50
 1246 0301 01       		.uleb128 0x1
 1247 0302 30       		.byte	0x30
 1248 0303 0B       		.uleb128 0xb
 1249 0304 01       		.uleb128 0x1
 1250 0305 51       		.byte	0x51
 1251 0306 01       		.uleb128 0x1
 1252 0307 30       		.byte	0x30
 1253 0308 00       		.byte	0
 1254 0309 0A       		.uleb128 0xa
 1255 030a 1E000000 		.4byte	.LVL22
 1256 030e EE060000 		.4byte	0x6ee
 1257 0312 1D030000 		.4byte	0x31d
 1258 0316 0B       		.uleb128 0xb
 1259 0317 01       		.uleb128 0x1
 1260 0318 50       		.byte	0x50
 1261 0319 02       		.uleb128 0x2
 1262 031a 77       		.byte	0x77
 1263 031b 00       		.sleb128 0
 1264 031c 00       		.byte	0
 1265 031d 0A       		.uleb128 0xa
 1266 031e 26000000 		.4byte	.LVL23
 1267 0322 E3060000 		.4byte	0x6e3
 1268 0326 35030000 		.4byte	0x335
 1269 032a 0B       		.uleb128 0xb
 1270 032b 01       		.uleb128 0x1
ARM GAS  C:\Users\degn\AppData\Local\Temp\ccNY7HAN.s 			page 28


 1271 032c 50       		.byte	0x50
 1272 032d 01       		.uleb128 0x1
 1273 032e 30       		.byte	0x30
 1274 032f 0B       		.uleb128 0xb
 1275 0330 01       		.uleb128 0x1
 1276 0331 51       		.byte	0x51
 1277 0332 01       		.uleb128 0x1
 1278 0333 3F       		.byte	0x3f
 1279 0334 00       		.byte	0
 1280 0335 0A       		.uleb128 0xa
 1281 0336 2C000000 		.4byte	.LVL24
 1282 033a 51070000 		.4byte	0x751
 1283 033e 49030000 		.4byte	0x349
 1284 0342 0B       		.uleb128 0xb
 1285 0343 01       		.uleb128 0x1
 1286 0344 50       		.byte	0x50
 1287 0345 02       		.uleb128 0x2
 1288 0346 76       		.byte	0x76
 1289 0347 00       		.sleb128 0
 1290 0348 00       		.byte	0
 1291 0349 0A       		.uleb128 0xa
 1292 034a 34000000 		.4byte	.LVL25
 1293 034e E3060000 		.4byte	0x6e3
 1294 0352 61030000 		.4byte	0x361
 1295 0356 0B       		.uleb128 0xb
 1296 0357 01       		.uleb128 0x1
 1297 0358 50       		.byte	0x50
 1298 0359 01       		.uleb128 0x1
 1299 035a 31       		.byte	0x31
 1300 035b 0B       		.uleb128 0xb
 1301 035c 01       		.uleb128 0x1
 1302 035d 51       		.byte	0x51
 1303 035e 01       		.uleb128 0x1
 1304 035f 30       		.byte	0x30
 1305 0360 00       		.byte	0
 1306 0361 0A       		.uleb128 0xa
 1307 0362 3A000000 		.4byte	.LVL26
 1308 0366 EE060000 		.4byte	0x6ee
 1309 036a 75030000 		.4byte	0x375
 1310 036e 0B       		.uleb128 0xb
 1311 036f 01       		.uleb128 0x1
 1312 0370 50       		.byte	0x50
 1313 0371 02       		.uleb128 0x2
 1314 0372 75       		.byte	0x75
 1315 0373 00       		.sleb128 0
 1316 0374 00       		.byte	0
 1317 0375 0A       		.uleb128 0xa
 1318 0376 42000000 		.4byte	.LVL27
 1319 037a E3060000 		.4byte	0x6e3
 1320 037e 8D030000 		.4byte	0x38d
 1321 0382 0B       		.uleb128 0xb
 1322 0383 01       		.uleb128 0x1
 1323 0384 50       		.byte	0x50
 1324 0385 01       		.uleb128 0x1
 1325 0386 31       		.byte	0x31
 1326 0387 0B       		.uleb128 0xb
 1327 0388 01       		.uleb128 0x1
ARM GAS  C:\Users\degn\AppData\Local\Temp\ccNY7HAN.s 			page 29


 1328 0389 51       		.byte	0x51
 1329 038a 01       		.uleb128 0x1
 1330 038b 3F       		.byte	0x3f
 1331 038c 00       		.byte	0
 1332 038d 0D       		.uleb128 0xd
 1333 038e 48000000 		.4byte	.LVL28
 1334 0392 51070000 		.4byte	0x751
 1335 0396 0B       		.uleb128 0xb
 1336 0397 01       		.uleb128 0x1
 1337 0398 50       		.byte	0x50
 1338 0399 02       		.uleb128 0x2
 1339 039a 74       		.byte	0x74
 1340 039b 00       		.sleb128 0
 1341 039c 00       		.byte	0
 1342 039d 00       		.byte	0
 1343 039e 11       		.uleb128 0x11
 1344 039f BE000000 		.4byte	.LASF33
 1345 03a3 01       		.byte	0x1
 1346 03a4 98       		.byte	0x98
 1347 03a5 73000000 		.4byte	0x73
 1348 03a9 00000000 		.4byte	.LFB74
 1349 03ad 9C000000 		.4byte	.LFE74-.LFB74
 1350 03b1 01       		.uleb128 0x1
 1351 03b2 9C       		.byte	0x9c
 1352 03b3 FD030000 		.4byte	0x3fd
 1353 03b7 12       		.uleb128 0x12
 1354 03b8 5F000000 		.4byte	.LASF35
 1355 03bc 01       		.byte	0x1
 1356 03bd 9A       		.byte	0x9a
 1357 03be 73000000 		.4byte	0x73
 1358 03c2 78000000 		.4byte	.LLST4
 1359 03c6 0C       		.uleb128 0xc
 1360 03c7 06000000 		.4byte	.LVL30
 1361 03cb 5C070000 		.4byte	0x75c
 1362 03cf 0C       		.uleb128 0xc
 1363 03d0 12000000 		.4byte	.LVL31
 1364 03d4 5C070000 		.4byte	0x75c
 1365 03d8 0C       		.uleb128 0xc
 1366 03d9 28000000 		.4byte	.LVL32
 1367 03dd 5C070000 		.4byte	0x75c
 1368 03e1 0C       		.uleb128 0xc
 1369 03e2 34000000 		.4byte	.LVL33
 1370 03e6 5C070000 		.4byte	0x75c
 1371 03ea 0C       		.uleb128 0xc
 1372 03eb 48000000 		.4byte	.LVL34
 1373 03ef 5C070000 		.4byte	0x75c
 1374 03f3 0C       		.uleb128 0xc
 1375 03f4 5E000000 		.4byte	.LVL37
 1376 03f8 5C070000 		.4byte	0x75c
 1377 03fc 00       		.byte	0
 1378 03fd 09       		.uleb128 0x9
 1379 03fe C5000000 		.4byte	.LASF34
 1380 0402 01       		.byte	0x1
 1381 0403 BB       		.byte	0xbb
 1382 0404 00000000 		.4byte	.LFB75
 1383 0408 74000000 		.4byte	.LFE75-.LFB75
 1384 040c 01       		.uleb128 0x1
ARM GAS  C:\Users\degn\AppData\Local\Temp\ccNY7HAN.s 			page 30


 1385 040d 9C       		.byte	0x9c
 1386 040e 3D040000 		.4byte	0x43d
 1387 0412 13       		.uleb128 0x13
 1388 0413 61646300 		.ascii	"adc\000"
 1389 0417 01       		.byte	0x1
 1390 0418 BD       		.byte	0xbd
 1391 0419 73000000 		.4byte	0x73
 1392 041d B0000000 		.4byte	.LLST5
 1393 0421 0C       		.uleb128 0xc
 1394 0422 06000000 		.4byte	.LVL40
 1395 0426 5C070000 		.4byte	0x75c
 1396 042a 0C       		.uleb128 0xc
 1397 042b 2C000000 		.4byte	.LVL43
 1398 042f 67070000 		.4byte	0x767
 1399 0433 0C       		.uleb128 0xc
 1400 0434 5A000000 		.4byte	.LVL46
 1401 0438 67070000 		.4byte	0x767
 1402 043c 00       		.byte	0
 1403 043d 11       		.uleb128 0x11
 1404 043e 72000000 		.4byte	.LASF36
 1405 0442 01       		.byte	0x1
 1406 0443 CE       		.byte	0xce
 1407 0444 73000000 		.4byte	0x73
 1408 0448 00000000 		.4byte	.LFB76
 1409 044c 08000000 		.4byte	.LFE76-.LFB76
 1410 0450 01       		.uleb128 0x1
 1411 0451 9C       		.byte	0x9c
 1412 0452 60040000 		.4byte	0x460
 1413 0456 0C       		.uleb128 0xc
 1414 0457 06000000 		.4byte	.LVL48
 1415 045b 72070000 		.4byte	0x772
 1416 045f 00       		.byte	0
 1417 0460 0E       		.uleb128 0xe
 1418 0461 5C010000 		.4byte	.LASF37
 1419 0465 01       		.byte	0x1
 1420 0466 40       		.byte	0x40
 1421 0467 00000000 		.4byte	.LFB66
 1422 046b 8C000000 		.4byte	.LFE66-.LFB66
 1423 046f 01       		.uleb128 0x1
 1424 0470 9C       		.byte	0x9c
 1425 0471 47050000 		.4byte	0x547
 1426 0475 0C       		.uleb128 0xc
 1427 0476 06000000 		.4byte	.LVL49
 1428 047a 3D040000 		.4byte	0x43d
 1429 047e 0A       		.uleb128 0xa
 1430 047f 22000000 		.4byte	.LVL50
 1431 0483 7D070000 		.4byte	0x77d
 1432 0487 9B040000 		.4byte	0x49b
 1433 048b 0B       		.uleb128 0xb
 1434 048c 01       		.uleb128 0x1
 1435 048d 50       		.byte	0x50
 1436 048e 02       		.uleb128 0x2
 1437 048f 74       		.byte	0x74
 1438 0490 00       		.sleb128 0
 1439 0491 0B       		.uleb128 0xb
 1440 0492 01       		.uleb128 0x1
 1441 0493 51       		.byte	0x51
ARM GAS  C:\Users\degn\AppData\Local\Temp\ccNY7HAN.s 			page 31


 1442 0494 05       		.uleb128 0x5
 1443 0495 03       		.byte	0x3
 1444 0496 18000000 		.4byte	.LC2
 1445 049a 00       		.byte	0
 1446 049b 0A       		.uleb128 0xa
 1447 049c 2E000000 		.4byte	.LVL51
 1448 04a0 8D020000 		.4byte	0x28d
 1449 04a4 C2040000 		.4byte	0x4c2
 1450 04a8 0B       		.uleb128 0xb
 1451 04a9 01       		.uleb128 0x1
 1452 04aa 50       		.byte	0x50
 1453 04ab 05       		.uleb128 0x5
 1454 04ac 03       		.byte	0x3
 1455 04ad 28000000 		.4byte	.LC3
 1456 04b1 0B       		.uleb128 0xb
 1457 04b2 01       		.uleb128 0x1
 1458 04b3 51       		.byte	0x51
 1459 04b4 01       		.uleb128 0x1
 1460 04b5 33       		.byte	0x33
 1461 04b6 0B       		.uleb128 0xb
 1462 04b7 01       		.uleb128 0x1
 1463 04b8 52       		.byte	0x52
 1464 04b9 02       		.uleb128 0x2
 1465 04ba 74       		.byte	0x74
 1466 04bb 00       		.sleb128 0
 1467 04bc 0B       		.uleb128 0xb
 1468 04bd 01       		.uleb128 0x1
 1469 04be 53       		.byte	0x53
 1470 04bf 01       		.uleb128 0x1
 1471 04c0 30       		.byte	0x30
 1472 04c1 00       		.byte	0
 1473 04c2 0A       		.uleb128 0xa
 1474 04c3 44000000 		.4byte	.LVL52
 1475 04c7 7D070000 		.4byte	0x77d
 1476 04cb DF040000 		.4byte	0x4df
 1477 04cf 0B       		.uleb128 0xb
 1478 04d0 01       		.uleb128 0x1
 1479 04d1 50       		.byte	0x50
 1480 04d2 02       		.uleb128 0x2
 1481 04d3 74       		.byte	0x74
 1482 04d4 00       		.sleb128 0
 1483 04d5 0B       		.uleb128 0xb
 1484 04d6 01       		.uleb128 0x1
 1485 04d7 51       		.byte	0x51
 1486 04d8 05       		.uleb128 0x5
 1487 04d9 03       		.byte	0x3
 1488 04da 18000000 		.4byte	.LC2
 1489 04de 00       		.byte	0
 1490 04df 0A       		.uleb128 0xa
 1491 04e0 50000000 		.4byte	.LVL53
 1492 04e4 8D020000 		.4byte	0x28d
 1493 04e8 06050000 		.4byte	0x506
 1494 04ec 0B       		.uleb128 0xb
 1495 04ed 01       		.uleb128 0x1
 1496 04ee 50       		.byte	0x50
 1497 04ef 05       		.uleb128 0x5
 1498 04f0 03       		.byte	0x3
ARM GAS  C:\Users\degn\AppData\Local\Temp\ccNY7HAN.s 			page 32


 1499 04f1 30000000 		.4byte	.LC4
 1500 04f5 0B       		.uleb128 0xb
 1501 04f6 01       		.uleb128 0x1
 1502 04f7 51       		.byte	0x51
 1503 04f8 01       		.uleb128 0x1
 1504 04f9 31       		.byte	0x31
 1505 04fa 0B       		.uleb128 0xb
 1506 04fb 01       		.uleb128 0x1
 1507 04fc 52       		.byte	0x52
 1508 04fd 02       		.uleb128 0x2
 1509 04fe 74       		.byte	0x74
 1510 04ff 00       		.sleb128 0
 1511 0500 0B       		.uleb128 0xb
 1512 0501 01       		.uleb128 0x1
 1513 0502 53       		.byte	0x53
 1514 0503 01       		.uleb128 0x1
 1515 0504 30       		.byte	0x30
 1516 0505 00       		.byte	0
 1517 0506 0A       		.uleb128 0xa
 1518 0507 60000000 		.4byte	.LVL54
 1519 050b 7D070000 		.4byte	0x77d
 1520 050f 23050000 		.4byte	0x523
 1521 0513 0B       		.uleb128 0xb
 1522 0514 01       		.uleb128 0x1
 1523 0515 50       		.byte	0x50
 1524 0516 02       		.uleb128 0x2
 1525 0517 74       		.byte	0x74
 1526 0518 00       		.sleb128 0
 1527 0519 0B       		.uleb128 0xb
 1528 051a 01       		.uleb128 0x1
 1529 051b 51       		.byte	0x51
 1530 051c 05       		.uleb128 0x5
 1531 051d 03       		.byte	0x3
 1532 051e 18000000 		.4byte	.LC2
 1533 0522 00       		.byte	0
 1534 0523 0D       		.uleb128 0xd
 1535 0524 6C000000 		.4byte	.LVL55
 1536 0528 8D020000 		.4byte	0x28d
 1537 052c 0B       		.uleb128 0xb
 1538 052d 01       		.uleb128 0x1
 1539 052e 50       		.byte	0x50
 1540 052f 05       		.uleb128 0x5
 1541 0530 03       		.byte	0x3
 1542 0531 38000000 		.4byte	.LC5
 1543 0535 0B       		.uleb128 0xb
 1544 0536 01       		.uleb128 0x1
 1545 0537 51       		.byte	0x51
 1546 0538 01       		.uleb128 0x1
 1547 0539 31       		.byte	0x31
 1548 053a 0B       		.uleb128 0xb
 1549 053b 01       		.uleb128 0x1
 1550 053c 52       		.byte	0x52
 1551 053d 02       		.uleb128 0x2
 1552 053e 74       		.byte	0x74
 1553 053f 00       		.sleb128 0
 1554 0540 0B       		.uleb128 0xb
 1555 0541 01       		.uleb128 0x1
ARM GAS  C:\Users\degn\AppData\Local\Temp\ccNY7HAN.s 			page 33


 1556 0542 53       		.byte	0x53
 1557 0543 01       		.uleb128 0x1
 1558 0544 30       		.byte	0x30
 1559 0545 00       		.byte	0
 1560 0546 00       		.byte	0
 1561 0547 14       		.uleb128 0x14
 1562 0548 4F010000 		.4byte	.LASF76
 1563 054c 01       		.byte	0x1
 1564 054d D3       		.byte	0xd3
 1565 054e 73000000 		.4byte	0x73
 1566 0552 00000000 		.4byte	.LFB77
 1567 0556 34000000 		.4byte	.LFE77-.LFB77
 1568 055a 01       		.uleb128 0x1
 1569 055b 9C       		.byte	0x9c
 1570 055c B0050000 		.4byte	0x5b0
 1571 0560 10       		.uleb128 0x10
 1572 0561 88000000 		.4byte	.LASF38
 1573 0565 01       		.byte	0x1
 1574 0566 D3       		.byte	0xd3
 1575 0567 73000000 		.4byte	0x73
 1576 056b E7000000 		.4byte	.LLST6
 1577 056f 15       		.uleb128 0x15
 1578 0570 8D020000 		.4byte	.LASF39
 1579 0574 01       		.byte	0x1
 1580 0575 D6       		.byte	0xd6
 1581 0576 B0050000 		.4byte	0x5b0
 1582 057a 1E       		.byte	0x1e
 1583 057b 16       		.uleb128 0x16
 1584 057c 44000000 		.4byte	.LASF40
 1585 0580 01       		.byte	0x1
 1586 0581 D7       		.byte	0xd7
 1587 0582 B0050000 		.4byte	0x5b0
 1588 0586 D20F     		.2byte	0xfd2
 1589 0588 17       		.uleb128 0x17
 1590 0589 B9020000 		.4byte	.LASF41
 1591 058d 01       		.byte	0x1
 1592 058e D8       		.byte	0xd8
 1593 058f B0050000 		.4byte	0x5b0
 1594 0593 57       		.sleb128 -41
 1595 0594 15       		.uleb128 0x15
 1596 0595 40020000 		.4byte	.LASF42
 1597 0599 01       		.byte	0x1
 1598 059a D9       		.byte	0xd9
 1599 059b B0050000 		.4byte	0x5b0
 1600 059f 29       		.byte	0x29
 1601 05a0 12       		.uleb128 0x12
 1602 05a1 47010000 		.4byte	.LASF43
 1603 05a5 01       		.byte	0x1
 1604 05a6 E6       		.byte	0xe6
 1605 05a7 73000000 		.4byte	0x73
 1606 05ab 20010000 		.4byte	.LLST7
 1607 05af 00       		.byte	0
 1608 05b0 18       		.uleb128 0x18
 1609 05b1 73000000 		.4byte	0x73
 1610 05b5 11       		.uleb128 0x11
 1611 05b6 B7000000 		.4byte	.LASF44
 1612 05ba 01       		.byte	0x1
ARM GAS  C:\Users\degn\AppData\Local\Temp\ccNY7HAN.s 			page 34


 1613 05bb 8A       		.byte	0x8a
 1614 05bc 73000000 		.4byte	0x73
 1615 05c0 00000000 		.4byte	.LFB73
 1616 05c4 34000000 		.4byte	.LFE73-.LFB73
 1617 05c8 01       		.uleb128 0x1
 1618 05c9 9C       		.byte	0x9c
 1619 05ca 13060000 		.4byte	0x613
 1620 05ce 15       		.uleb128 0x15
 1621 05cf 9B000000 		.4byte	.LASF45
 1622 05d3 01       		.byte	0x1
 1623 05d4 8D       		.byte	0x8d
 1624 05d5 73000000 		.4byte	0x73
 1625 05d9 0A       		.byte	0xa
 1626 05da 13       		.uleb128 0x13
 1627 05db 73756D00 		.ascii	"sum\000"
 1628 05df 01       		.byte	0x1
 1629 05e0 8E       		.byte	0x8e
 1630 05e1 57000000 		.4byte	0x57
 1631 05e5 40010000 		.4byte	.LLST8
 1632 05e9 19       		.uleb128 0x19
 1633 05ea 00000000 		.4byte	.Ldebug_ranges0+0
 1634 05ee 09060000 		.4byte	0x609
 1635 05f2 13       		.uleb128 0x13
 1636 05f3 6900     		.ascii	"i\000"
 1637 05f5 01       		.byte	0x1
 1638 05f6 8F       		.byte	0x8f
 1639 05f7 73000000 		.4byte	0x73
 1640 05fb 7C010000 		.4byte	.LLST9
 1641 05ff 0C       		.uleb128 0xc
 1642 0600 0C000000 		.4byte	.LVL66
 1643 0604 5C070000 		.4byte	0x75c
 1644 0608 00       		.byte	0
 1645 0609 0C       		.uleb128 0xc
 1646 060a 24000000 		.4byte	.LVL71
 1647 060e 47050000 		.4byte	0x547
 1648 0612 00       		.byte	0
 1649 0613 1A       		.uleb128 0x1a
 1650 0614 23030000 		.4byte	.LASF46
 1651 0618 04       		.byte	0x4
 1652 0619 1207     		.2byte	0x712
 1653 061b 1F060000 		.4byte	0x61f
 1654 061f 1B       		.uleb128 0x1b
 1655 0620 8C000000 		.4byte	0x8c
 1656 0624 1C       		.uleb128 0x1c
 1657 0625 43030000 		.4byte	.LASF47
 1658 0629 01       		.byte	0x1
 1659 062a 06       		.byte	0x6
 1660 062b 81000000 		.4byte	0x81
 1661 062f 05       		.uleb128 0x5
 1662 0630 03       		.byte	0x3
 1663 0631 00000000 		.4byte	convertedResult
 1664 0635 1C       		.uleb128 0x1c
 1665 0636 38040000 		.4byte	.LASF48
 1666 063a 01       		.byte	0x1
 1667 063b 07       		.byte	0x7
 1668 063c 73000000 		.4byte	0x73
 1669 0640 05       		.uleb128 0x5
ARM GAS  C:\Users\degn\AppData\Local\Temp\ccNY7HAN.s 			page 35


 1670 0641 03       		.byte	0x3
 1671 0642 00000000 		.4byte	toggle
 1672 0646 1D       		.uleb128 0x1d
 1673 0647 64656700 		.ascii	"deg\000"
 1674 064b 01       		.byte	0x1
 1675 064c 08       		.byte	0x8
 1676 064d 73000000 		.4byte	0x73
 1677 0651 05       		.uleb128 0x5
 1678 0652 03       		.byte	0x3
 1679 0653 00000000 		.4byte	deg
 1680 0657 1E       		.uleb128 0x1e
 1681 0658 A5000000 		.4byte	0xa5
 1682 065c 67060000 		.4byte	0x667
 1683 0660 1F       		.uleb128 0x1f
 1684 0661 B3000000 		.4byte	0xb3
 1685 0665 13       		.byte	0x13
 1686 0666 00       		.byte	0
 1687 0667 1C       		.uleb128 0x1c
 1688 0668 7E000000 		.4byte	.LASF49
 1689 066c 01       		.byte	0x1
 1690 066d 09       		.byte	0x9
 1691 066e 57060000 		.4byte	0x657
 1692 0672 05       		.uleb128 0x5
 1693 0673 03       		.byte	0x3
 1694 0674 00000000 		.4byte	LCDbuffer
 1695 0678 1C       		.uleb128 0x1c
 1696 0679 04010000 		.4byte	.LASF50
 1697 067d 01       		.byte	0x1
 1698 067e 0A       		.byte	0xa
 1699 067f 73000000 		.4byte	0x73
 1700 0683 05       		.uleb128 0x5
 1701 0684 03       		.byte	0x3
 1702 0685 00000000 		.4byte	block
 1703 0689 1C       		.uleb128 0x1c
 1704 068a 28000000 		.4byte	.LASF51
 1705 068e 01       		.byte	0x1
 1706 068f 0B       		.byte	0xb
 1707 0690 57060000 		.4byte	0x657
 1708 0694 05       		.uleb128 0x5
 1709 0695 03       		.byte	0x3
 1710 0696 00000000 		.4byte	tempbuffer
 1711 069a 1C       		.uleb128 0x1c
 1712 069b 83020000 		.4byte	.LASF52
 1713 069f 01       		.byte	0x1
 1714 06a0 0C       		.byte	0xc
 1715 06a1 73000000 		.4byte	0x73
 1716 06a5 05       		.uleb128 0x5
 1717 06a6 03       		.byte	0x3
 1718 06a7 00000000 		.4byte	pass
 1719 06ab 1C       		.uleb128 0x1c
 1720 06ac 15030000 		.4byte	.LASF53
 1721 06b0 01       		.byte	0x1
 1722 06b1 0D       		.byte	0xd
 1723 06b2 73000000 		.4byte	0x73
 1724 06b6 05       		.uleb128 0x5
 1725 06b7 03       		.byte	0x3
 1726 06b8 00000000 		.4byte	gradientShift
ARM GAS  C:\Users\degn\AppData\Local\Temp\ccNY7HAN.s 			page 36


 1727 06bc 1C       		.uleb128 0x1c
 1728 06bd C9020000 		.4byte	.LASF54
 1729 06c1 01       		.byte	0x1
 1730 06c2 0E       		.byte	0xe
 1731 06c3 73000000 		.4byte	0x73
 1732 06c7 05       		.uleb128 0x5
 1733 06c8 03       		.byte	0x3
 1734 06c9 00000000 		.4byte	gradientCount
 1735 06cd 20       		.uleb128 0x20
 1736 06ce 33000000 		.4byte	.LASF55
 1737 06d2 33000000 		.4byte	.LASF55
 1738 06d6 05       		.byte	0x5
 1739 06d7 3A       		.byte	0x3a
 1740 06d8 20       		.uleb128 0x20
 1741 06d9 28010000 		.4byte	.LASF56
 1742 06dd 28010000 		.4byte	.LASF56
 1743 06e1 05       		.byte	0x5
 1744 06e2 38       		.byte	0x38
 1745 06e3 20       		.uleb128 0x20
 1746 06e4 73030000 		.4byte	.LASF57
 1747 06e8 73030000 		.4byte	.LASF57
 1748 06ec 05       		.byte	0x5
 1749 06ed 3D       		.byte	0x3d
 1750 06ee 20       		.uleb128 0x20
 1751 06ef 30020000 		.4byte	.LASF58
 1752 06f3 30020000 		.4byte	.LASF58
 1753 06f7 05       		.byte	0x5
 1754 06f8 3C       		.byte	0x3c
 1755 06f9 20       		.uleb128 0x20
 1756 06fa 30040000 		.4byte	.LASF59
 1757 06fe 30040000 		.4byte	.LASF59
 1758 0702 06       		.byte	0x6
 1759 0703 76       		.byte	0x76
 1760 0704 20       		.uleb128 0x20
 1761 0705 0C000000 		.4byte	.LASF60
 1762 0709 0C000000 		.4byte	.LASF60
 1763 070d 07       		.byte	0x7
 1764 070e 34       		.byte	0x34
 1765 070f 20       		.uleb128 0x20
 1766 0710 95020000 		.4byte	.LASF61
 1767 0714 95020000 		.4byte	.LASF61
 1768 0718 07       		.byte	0x7
 1769 0719 D1       		.byte	0xd1
 1770 071a 20       		.uleb128 0x20
 1771 071b 1C000000 		.4byte	.LASF62
 1772 071f 1C000000 		.4byte	.LASF62
 1773 0723 08       		.byte	0x8
 1774 0724 92       		.byte	0x92
 1775 0725 20       		.uleb128 0x20
 1776 0726 64020000 		.4byte	.LASF63
 1777 072a 64020000 		.4byte	.LASF63
 1778 072e 09       		.byte	0x9
 1779 072f 92       		.byte	0x92
 1780 0730 20       		.uleb128 0x20
 1781 0731 FB020000 		.4byte	.LASF64
 1782 0735 FB020000 		.4byte	.LASF64
 1783 0739 0A       		.byte	0xa
ARM GAS  C:\Users\degn\AppData\Local\Temp\ccNY7HAN.s 			page 37


 1784 073a 18       		.byte	0x18
 1785 073b 20       		.uleb128 0x20
 1786 073c D7020000 		.4byte	.LASF65
 1787 0740 D7020000 		.4byte	.LASF65
 1788 0744 0B       		.byte	0xb
 1789 0745 18       		.byte	0x18
 1790 0746 20       		.uleb128 0x20
 1791 0747 48020000 		.4byte	.LASF66
 1792 074b 48020000 		.4byte	.LASF66
 1793 074f 0C       		.byte	0xc
 1794 0750 18       		.byte	0x18
 1795 0751 20       		.uleb128 0x20
 1796 0752 1C010000 		.4byte	.LASF67
 1797 0756 1C010000 		.4byte	.LASF67
 1798 075a 05       		.byte	0x5
 1799 075b 3E       		.byte	0x3e
 1800 075c 20       		.uleb128 0x20
 1801 075d A1000000 		.4byte	.LASF68
 1802 0761 A1000000 		.4byte	.LASF68
 1803 0765 07       		.byte	0x7
 1804 0766 3B       		.byte	0x3b
 1805 0767 20       		.uleb128 0x20
 1806 0768 52040000 		.4byte	.LASF69
 1807 076c 52040000 		.4byte	.LASF69
 1808 0770 09       		.byte	0x9
 1809 0771 BE       		.byte	0xbe
 1810 0772 20       		.uleb128 0x20
 1811 0773 D2000000 		.4byte	.LASF70
 1812 0777 D2000000 		.4byte	.LASF70
 1813 077b 0D       		.byte	0xd
 1814 077c 29       		.byte	0x29
 1815 077d 20       		.uleb128 0x20
 1816 077e 7C010000 		.4byte	.LASF71
 1817 0782 7C010000 		.4byte	.LASF71
 1818 0786 0E       		.byte	0xe
 1819 0787 E7       		.byte	0xe7
 1820 0788 00       		.byte	0
 1821              		.section	.debug_abbrev,"",%progbits
 1822              	.Ldebug_abbrev0:
 1823 0000 01       		.uleb128 0x1
 1824 0001 11       		.uleb128 0x11
 1825 0002 01       		.byte	0x1
 1826 0003 25       		.uleb128 0x25
 1827 0004 0E       		.uleb128 0xe
 1828 0005 13       		.uleb128 0x13
 1829 0006 0B       		.uleb128 0xb
 1830 0007 03       		.uleb128 0x3
 1831 0008 0E       		.uleb128 0xe
 1832 0009 1B       		.uleb128 0x1b
 1833 000a 0E       		.uleb128 0xe
 1834 000b 55       		.uleb128 0x55
 1835 000c 17       		.uleb128 0x17
 1836 000d 11       		.uleb128 0x11
 1837 000e 01       		.uleb128 0x1
 1838 000f 10       		.uleb128 0x10
 1839 0010 17       		.uleb128 0x17
 1840 0011 00       		.byte	0
ARM GAS  C:\Users\degn\AppData\Local\Temp\ccNY7HAN.s 			page 38


 1841 0012 00       		.byte	0
 1842 0013 02       		.uleb128 0x2
 1843 0014 24       		.uleb128 0x24
 1844 0015 00       		.byte	0
 1845 0016 0B       		.uleb128 0xb
 1846 0017 0B       		.uleb128 0xb
 1847 0018 3E       		.uleb128 0x3e
 1848 0019 0B       		.uleb128 0xb
 1849 001a 03       		.uleb128 0x3
 1850 001b 0E       		.uleb128 0xe
 1851 001c 00       		.byte	0
 1852 001d 00       		.byte	0
 1853 001e 03       		.uleb128 0x3
 1854 001f 16       		.uleb128 0x16
 1855 0020 00       		.byte	0
 1856 0021 03       		.uleb128 0x3
 1857 0022 0E       		.uleb128 0xe
 1858 0023 3A       		.uleb128 0x3a
 1859 0024 0B       		.uleb128 0xb
 1860 0025 3B       		.uleb128 0x3b
 1861 0026 0B       		.uleb128 0xb
 1862 0027 49       		.uleb128 0x49
 1863 0028 13       		.uleb128 0x13
 1864 0029 00       		.byte	0
 1865 002a 00       		.byte	0
 1866 002b 04       		.uleb128 0x4
 1867 002c 24       		.uleb128 0x24
 1868 002d 00       		.byte	0
 1869 002e 0B       		.uleb128 0xb
 1870 002f 0B       		.uleb128 0xb
 1871 0030 3E       		.uleb128 0x3e
 1872 0031 0B       		.uleb128 0xb
 1873 0032 03       		.uleb128 0x3
 1874 0033 08       		.uleb128 0x8
 1875 0034 00       		.byte	0
 1876 0035 00       		.byte	0
 1877 0036 05       		.uleb128 0x5
 1878 0037 0F       		.uleb128 0xf
 1879 0038 00       		.byte	0
 1880 0039 0B       		.uleb128 0xb
 1881 003a 0B       		.uleb128 0xb
 1882 003b 49       		.uleb128 0x49
 1883 003c 13       		.uleb128 0x13
 1884 003d 00       		.byte	0
 1885 003e 00       		.byte	0
 1886 003f 06       		.uleb128 0x6
 1887 0040 04       		.uleb128 0x4
 1888 0041 01       		.byte	0x1
 1889 0042 03       		.uleb128 0x3
 1890 0043 0E       		.uleb128 0xe
 1891 0044 0B       		.uleb128 0xb
 1892 0045 0B       		.uleb128 0xb
 1893 0046 49       		.uleb128 0x49
 1894 0047 13       		.uleb128 0x13
 1895 0048 3A       		.uleb128 0x3a
 1896 0049 0B       		.uleb128 0xb
 1897 004a 3B       		.uleb128 0x3b
ARM GAS  C:\Users\degn\AppData\Local\Temp\ccNY7HAN.s 			page 39


 1898 004b 0B       		.uleb128 0xb
 1899 004c 01       		.uleb128 0x1
 1900 004d 13       		.uleb128 0x13
 1901 004e 00       		.byte	0
 1902 004f 00       		.byte	0
 1903 0050 07       		.uleb128 0x7
 1904 0051 28       		.uleb128 0x28
 1905 0052 00       		.byte	0
 1906 0053 03       		.uleb128 0x3
 1907 0054 0E       		.uleb128 0xe
 1908 0055 1C       		.uleb128 0x1c
 1909 0056 0B       		.uleb128 0xb
 1910 0057 00       		.byte	0
 1911 0058 00       		.byte	0
 1912 0059 08       		.uleb128 0x8
 1913 005a 2E       		.uleb128 0x2e
 1914 005b 00       		.byte	0
 1915 005c 3F       		.uleb128 0x3f
 1916 005d 19       		.uleb128 0x19
 1917 005e 03       		.uleb128 0x3
 1918 005f 0E       		.uleb128 0xe
 1919 0060 3A       		.uleb128 0x3a
 1920 0061 0B       		.uleb128 0xb
 1921 0062 3B       		.uleb128 0x3b
 1922 0063 0B       		.uleb128 0xb
 1923 0064 27       		.uleb128 0x27
 1924 0065 19       		.uleb128 0x19
 1925 0066 11       		.uleb128 0x11
 1926 0067 01       		.uleb128 0x1
 1927 0068 12       		.uleb128 0x12
 1928 0069 06       		.uleb128 0x6
 1929 006a 40       		.uleb128 0x40
 1930 006b 18       		.uleb128 0x18
 1931 006c 9742     		.uleb128 0x2117
 1932 006e 19       		.uleb128 0x19
 1933 006f 00       		.byte	0
 1934 0070 00       		.byte	0
 1935 0071 09       		.uleb128 0x9
 1936 0072 2E       		.uleb128 0x2e
 1937 0073 01       		.byte	0x1
 1938 0074 3F       		.uleb128 0x3f
 1939 0075 19       		.uleb128 0x19
 1940 0076 03       		.uleb128 0x3
 1941 0077 0E       		.uleb128 0xe
 1942 0078 3A       		.uleb128 0x3a
 1943 0079 0B       		.uleb128 0xb
 1944 007a 3B       		.uleb128 0x3b
 1945 007b 0B       		.uleb128 0xb
 1946 007c 11       		.uleb128 0x11
 1947 007d 01       		.uleb128 0x1
 1948 007e 12       		.uleb128 0x12
 1949 007f 06       		.uleb128 0x6
 1950 0080 40       		.uleb128 0x40
 1951 0081 18       		.uleb128 0x18
 1952 0082 9742     		.uleb128 0x2117
 1953 0084 19       		.uleb128 0x19
 1954 0085 01       		.uleb128 0x1
ARM GAS  C:\Users\degn\AppData\Local\Temp\ccNY7HAN.s 			page 40


 1955 0086 13       		.uleb128 0x13
 1956 0087 00       		.byte	0
 1957 0088 00       		.byte	0
 1958 0089 0A       		.uleb128 0xa
 1959 008a 898201   		.uleb128 0x4109
 1960 008d 01       		.byte	0x1
 1961 008e 11       		.uleb128 0x11
 1962 008f 01       		.uleb128 0x1
 1963 0090 31       		.uleb128 0x31
 1964 0091 13       		.uleb128 0x13
 1965 0092 01       		.uleb128 0x1
 1966 0093 13       		.uleb128 0x13
 1967 0094 00       		.byte	0
 1968 0095 00       		.byte	0
 1969 0096 0B       		.uleb128 0xb
 1970 0097 8A8201   		.uleb128 0x410a
 1971 009a 00       		.byte	0
 1972 009b 02       		.uleb128 0x2
 1973 009c 18       		.uleb128 0x18
 1974 009d 9142     		.uleb128 0x2111
 1975 009f 18       		.uleb128 0x18
 1976 00a0 00       		.byte	0
 1977 00a1 00       		.byte	0
 1978 00a2 0C       		.uleb128 0xc
 1979 00a3 898201   		.uleb128 0x4109
 1980 00a6 00       		.byte	0
 1981 00a7 11       		.uleb128 0x11
 1982 00a8 01       		.uleb128 0x1
 1983 00a9 31       		.uleb128 0x31
 1984 00aa 13       		.uleb128 0x13
 1985 00ab 00       		.byte	0
 1986 00ac 00       		.byte	0
 1987 00ad 0D       		.uleb128 0xd
 1988 00ae 898201   		.uleb128 0x4109
 1989 00b1 01       		.byte	0x1
 1990 00b2 11       		.uleb128 0x11
 1991 00b3 01       		.uleb128 0x1
 1992 00b4 31       		.uleb128 0x31
 1993 00b5 13       		.uleb128 0x13
 1994 00b6 00       		.byte	0
 1995 00b7 00       		.byte	0
 1996 00b8 0E       		.uleb128 0xe
 1997 00b9 2E       		.uleb128 0x2e
 1998 00ba 01       		.byte	0x1
 1999 00bb 3F       		.uleb128 0x3f
 2000 00bc 19       		.uleb128 0x19
 2001 00bd 03       		.uleb128 0x3
 2002 00be 0E       		.uleb128 0xe
 2003 00bf 3A       		.uleb128 0x3a
 2004 00c0 0B       		.uleb128 0xb
 2005 00c1 3B       		.uleb128 0x3b
 2006 00c2 0B       		.uleb128 0xb
 2007 00c3 27       		.uleb128 0x27
 2008 00c4 19       		.uleb128 0x19
 2009 00c5 11       		.uleb128 0x11
 2010 00c6 01       		.uleb128 0x1
 2011 00c7 12       		.uleb128 0x12
ARM GAS  C:\Users\degn\AppData\Local\Temp\ccNY7HAN.s 			page 41


 2012 00c8 06       		.uleb128 0x6
 2013 00c9 40       		.uleb128 0x40
 2014 00ca 18       		.uleb128 0x18
 2015 00cb 9742     		.uleb128 0x2117
 2016 00cd 19       		.uleb128 0x19
 2017 00ce 01       		.uleb128 0x1
 2018 00cf 13       		.uleb128 0x13
 2019 00d0 00       		.byte	0
 2020 00d1 00       		.byte	0
 2021 00d2 0F       		.uleb128 0xf
 2022 00d3 05       		.uleb128 0x5
 2023 00d4 00       		.byte	0
 2024 00d5 03       		.uleb128 0x3
 2025 00d6 08       		.uleb128 0x8
 2026 00d7 3A       		.uleb128 0x3a
 2027 00d8 0B       		.uleb128 0xb
 2028 00d9 3B       		.uleb128 0x3b
 2029 00da 0B       		.uleb128 0xb
 2030 00db 49       		.uleb128 0x49
 2031 00dc 13       		.uleb128 0x13
 2032 00dd 02       		.uleb128 0x2
 2033 00de 17       		.uleb128 0x17
 2034 00df 00       		.byte	0
 2035 00e0 00       		.byte	0
 2036 00e1 10       		.uleb128 0x10
 2037 00e2 05       		.uleb128 0x5
 2038 00e3 00       		.byte	0
 2039 00e4 03       		.uleb128 0x3
 2040 00e5 0E       		.uleb128 0xe
 2041 00e6 3A       		.uleb128 0x3a
 2042 00e7 0B       		.uleb128 0xb
 2043 00e8 3B       		.uleb128 0x3b
 2044 00e9 0B       		.uleb128 0xb
 2045 00ea 49       		.uleb128 0x49
 2046 00eb 13       		.uleb128 0x13
 2047 00ec 02       		.uleb128 0x2
 2048 00ed 17       		.uleb128 0x17
 2049 00ee 00       		.byte	0
 2050 00ef 00       		.byte	0
 2051 00f0 11       		.uleb128 0x11
 2052 00f1 2E       		.uleb128 0x2e
 2053 00f2 01       		.byte	0x1
 2054 00f3 3F       		.uleb128 0x3f
 2055 00f4 19       		.uleb128 0x19
 2056 00f5 03       		.uleb128 0x3
 2057 00f6 0E       		.uleb128 0xe
 2058 00f7 3A       		.uleb128 0x3a
 2059 00f8 0B       		.uleb128 0xb
 2060 00f9 3B       		.uleb128 0x3b
 2061 00fa 0B       		.uleb128 0xb
 2062 00fb 49       		.uleb128 0x49
 2063 00fc 13       		.uleb128 0x13
 2064 00fd 11       		.uleb128 0x11
 2065 00fe 01       		.uleb128 0x1
 2066 00ff 12       		.uleb128 0x12
 2067 0100 06       		.uleb128 0x6
 2068 0101 40       		.uleb128 0x40
ARM GAS  C:\Users\degn\AppData\Local\Temp\ccNY7HAN.s 			page 42


 2069 0102 18       		.uleb128 0x18
 2070 0103 9742     		.uleb128 0x2117
 2071 0105 19       		.uleb128 0x19
 2072 0106 01       		.uleb128 0x1
 2073 0107 13       		.uleb128 0x13
 2074 0108 00       		.byte	0
 2075 0109 00       		.byte	0
 2076 010a 12       		.uleb128 0x12
 2077 010b 34       		.uleb128 0x34
 2078 010c 00       		.byte	0
 2079 010d 03       		.uleb128 0x3
 2080 010e 0E       		.uleb128 0xe
 2081 010f 3A       		.uleb128 0x3a
 2082 0110 0B       		.uleb128 0xb
 2083 0111 3B       		.uleb128 0x3b
 2084 0112 0B       		.uleb128 0xb
 2085 0113 49       		.uleb128 0x49
 2086 0114 13       		.uleb128 0x13
 2087 0115 02       		.uleb128 0x2
 2088 0116 17       		.uleb128 0x17
 2089 0117 00       		.byte	0
 2090 0118 00       		.byte	0
 2091 0119 13       		.uleb128 0x13
 2092 011a 34       		.uleb128 0x34
 2093 011b 00       		.byte	0
 2094 011c 03       		.uleb128 0x3
 2095 011d 08       		.uleb128 0x8
 2096 011e 3A       		.uleb128 0x3a
 2097 011f 0B       		.uleb128 0xb
 2098 0120 3B       		.uleb128 0x3b
 2099 0121 0B       		.uleb128 0xb
 2100 0122 49       		.uleb128 0x49
 2101 0123 13       		.uleb128 0x13
 2102 0124 02       		.uleb128 0x2
 2103 0125 17       		.uleb128 0x17
 2104 0126 00       		.byte	0
 2105 0127 00       		.byte	0
 2106 0128 14       		.uleb128 0x14
 2107 0129 2E       		.uleb128 0x2e
 2108 012a 01       		.byte	0x1
 2109 012b 3F       		.uleb128 0x3f
 2110 012c 19       		.uleb128 0x19
 2111 012d 03       		.uleb128 0x3
 2112 012e 0E       		.uleb128 0xe
 2113 012f 3A       		.uleb128 0x3a
 2114 0130 0B       		.uleb128 0xb
 2115 0131 3B       		.uleb128 0x3b
 2116 0132 0B       		.uleb128 0xb
 2117 0133 27       		.uleb128 0x27
 2118 0134 19       		.uleb128 0x19
 2119 0135 49       		.uleb128 0x49
 2120 0136 13       		.uleb128 0x13
 2121 0137 11       		.uleb128 0x11
 2122 0138 01       		.uleb128 0x1
 2123 0139 12       		.uleb128 0x12
 2124 013a 06       		.uleb128 0x6
 2125 013b 40       		.uleb128 0x40
ARM GAS  C:\Users\degn\AppData\Local\Temp\ccNY7HAN.s 			page 43


 2126 013c 18       		.uleb128 0x18
 2127 013d 9742     		.uleb128 0x2117
 2128 013f 19       		.uleb128 0x19
 2129 0140 01       		.uleb128 0x1
 2130 0141 13       		.uleb128 0x13
 2131 0142 00       		.byte	0
 2132 0143 00       		.byte	0
 2133 0144 15       		.uleb128 0x15
 2134 0145 34       		.uleb128 0x34
 2135 0146 00       		.byte	0
 2136 0147 03       		.uleb128 0x3
 2137 0148 0E       		.uleb128 0xe
 2138 0149 3A       		.uleb128 0x3a
 2139 014a 0B       		.uleb128 0xb
 2140 014b 3B       		.uleb128 0x3b
 2141 014c 0B       		.uleb128 0xb
 2142 014d 49       		.uleb128 0x49
 2143 014e 13       		.uleb128 0x13
 2144 014f 1C       		.uleb128 0x1c
 2145 0150 0B       		.uleb128 0xb
 2146 0151 00       		.byte	0
 2147 0152 00       		.byte	0
 2148 0153 16       		.uleb128 0x16
 2149 0154 34       		.uleb128 0x34
 2150 0155 00       		.byte	0
 2151 0156 03       		.uleb128 0x3
 2152 0157 0E       		.uleb128 0xe
 2153 0158 3A       		.uleb128 0x3a
 2154 0159 0B       		.uleb128 0xb
 2155 015a 3B       		.uleb128 0x3b
 2156 015b 0B       		.uleb128 0xb
 2157 015c 49       		.uleb128 0x49
 2158 015d 13       		.uleb128 0x13
 2159 015e 1C       		.uleb128 0x1c
 2160 015f 05       		.uleb128 0x5
 2161 0160 00       		.byte	0
 2162 0161 00       		.byte	0
 2163 0162 17       		.uleb128 0x17
 2164 0163 34       		.uleb128 0x34
 2165 0164 00       		.byte	0
 2166 0165 03       		.uleb128 0x3
 2167 0166 0E       		.uleb128 0xe
 2168 0167 3A       		.uleb128 0x3a
 2169 0168 0B       		.uleb128 0xb
 2170 0169 3B       		.uleb128 0x3b
 2171 016a 0B       		.uleb128 0xb
 2172 016b 49       		.uleb128 0x49
 2173 016c 13       		.uleb128 0x13
 2174 016d 1C       		.uleb128 0x1c
 2175 016e 0D       		.uleb128 0xd
 2176 016f 00       		.byte	0
 2177 0170 00       		.byte	0
 2178 0171 18       		.uleb128 0x18
 2179 0172 26       		.uleb128 0x26
 2180 0173 00       		.byte	0
 2181 0174 49       		.uleb128 0x49
 2182 0175 13       		.uleb128 0x13
ARM GAS  C:\Users\degn\AppData\Local\Temp\ccNY7HAN.s 			page 44


 2183 0176 00       		.byte	0
 2184 0177 00       		.byte	0
 2185 0178 19       		.uleb128 0x19
 2186 0179 0B       		.uleb128 0xb
 2187 017a 01       		.byte	0x1
 2188 017b 55       		.uleb128 0x55
 2189 017c 17       		.uleb128 0x17
 2190 017d 01       		.uleb128 0x1
 2191 017e 13       		.uleb128 0x13
 2192 017f 00       		.byte	0
 2193 0180 00       		.byte	0
 2194 0181 1A       		.uleb128 0x1a
 2195 0182 34       		.uleb128 0x34
 2196 0183 00       		.byte	0
 2197 0184 03       		.uleb128 0x3
 2198 0185 0E       		.uleb128 0xe
 2199 0186 3A       		.uleb128 0x3a
 2200 0187 0B       		.uleb128 0xb
 2201 0188 3B       		.uleb128 0x3b
 2202 0189 05       		.uleb128 0x5
 2203 018a 49       		.uleb128 0x49
 2204 018b 13       		.uleb128 0x13
 2205 018c 3F       		.uleb128 0x3f
 2206 018d 19       		.uleb128 0x19
 2207 018e 3C       		.uleb128 0x3c
 2208 018f 19       		.uleb128 0x19
 2209 0190 00       		.byte	0
 2210 0191 00       		.byte	0
 2211 0192 1B       		.uleb128 0x1b
 2212 0193 35       		.uleb128 0x35
 2213 0194 00       		.byte	0
 2214 0195 49       		.uleb128 0x49
 2215 0196 13       		.uleb128 0x13
 2216 0197 00       		.byte	0
 2217 0198 00       		.byte	0
 2218 0199 1C       		.uleb128 0x1c
 2219 019a 34       		.uleb128 0x34
 2220 019b 00       		.byte	0
 2221 019c 03       		.uleb128 0x3
 2222 019d 0E       		.uleb128 0xe
 2223 019e 3A       		.uleb128 0x3a
 2224 019f 0B       		.uleb128 0xb
 2225 01a0 3B       		.uleb128 0x3b
 2226 01a1 0B       		.uleb128 0xb
 2227 01a2 49       		.uleb128 0x49
 2228 01a3 13       		.uleb128 0x13
 2229 01a4 3F       		.uleb128 0x3f
 2230 01a5 19       		.uleb128 0x19
 2231 01a6 02       		.uleb128 0x2
 2232 01a7 18       		.uleb128 0x18
 2233 01a8 00       		.byte	0
 2234 01a9 00       		.byte	0
 2235 01aa 1D       		.uleb128 0x1d
 2236 01ab 34       		.uleb128 0x34
 2237 01ac 00       		.byte	0
 2238 01ad 03       		.uleb128 0x3
 2239 01ae 08       		.uleb128 0x8
ARM GAS  C:\Users\degn\AppData\Local\Temp\ccNY7HAN.s 			page 45


 2240 01af 3A       		.uleb128 0x3a
 2241 01b0 0B       		.uleb128 0xb
 2242 01b1 3B       		.uleb128 0x3b
 2243 01b2 0B       		.uleb128 0xb
 2244 01b3 49       		.uleb128 0x49
 2245 01b4 13       		.uleb128 0x13
 2246 01b5 3F       		.uleb128 0x3f
 2247 01b6 19       		.uleb128 0x19
 2248 01b7 02       		.uleb128 0x2
 2249 01b8 18       		.uleb128 0x18
 2250 01b9 00       		.byte	0
 2251 01ba 00       		.byte	0
 2252 01bb 1E       		.uleb128 0x1e
 2253 01bc 01       		.uleb128 0x1
 2254 01bd 01       		.byte	0x1
 2255 01be 49       		.uleb128 0x49
 2256 01bf 13       		.uleb128 0x13
 2257 01c0 01       		.uleb128 0x1
 2258 01c1 13       		.uleb128 0x13
 2259 01c2 00       		.byte	0
 2260 01c3 00       		.byte	0
 2261 01c4 1F       		.uleb128 0x1f
 2262 01c5 21       		.uleb128 0x21
 2263 01c6 00       		.byte	0
 2264 01c7 49       		.uleb128 0x49
 2265 01c8 13       		.uleb128 0x13
 2266 01c9 2F       		.uleb128 0x2f
 2267 01ca 0B       		.uleb128 0xb
 2268 01cb 00       		.byte	0
 2269 01cc 00       		.byte	0
 2270 01cd 20       		.uleb128 0x20
 2271 01ce 2E       		.uleb128 0x2e
 2272 01cf 00       		.byte	0
 2273 01d0 3F       		.uleb128 0x3f
 2274 01d1 19       		.uleb128 0x19
 2275 01d2 3C       		.uleb128 0x3c
 2276 01d3 19       		.uleb128 0x19
 2277 01d4 6E       		.uleb128 0x6e
 2278 01d5 0E       		.uleb128 0xe
 2279 01d6 03       		.uleb128 0x3
 2280 01d7 0E       		.uleb128 0xe
 2281 01d8 3A       		.uleb128 0x3a
 2282 01d9 0B       		.uleb128 0xb
 2283 01da 3B       		.uleb128 0x3b
 2284 01db 0B       		.uleb128 0xb
 2285 01dc 00       		.byte	0
 2286 01dd 00       		.byte	0
 2287 01de 00       		.byte	0
 2288              		.section	.debug_loc,"",%progbits
 2289              	.Ldebug_loc0:
 2290              	.LLST0:
 2291 0000 00000000 		.4byte	.LVL18
 2292 0004 0C000000 		.4byte	.LVL19
 2293 0008 0100     		.2byte	0x1
 2294 000a 50       		.byte	0x50
 2295 000b 0C000000 		.4byte	.LVL19
 2296 000f 4A000000 		.4byte	.LFE72
ARM GAS  C:\Users\degn\AppData\Local\Temp\ccNY7HAN.s 			page 46


 2297 0013 0100     		.2byte	0x1
 2298 0015 57       		.byte	0x57
 2299 0016 00000000 		.4byte	0
 2300 001a 00000000 		.4byte	0
 2301              	.LLST1:
 2302 001e 00000000 		.4byte	.LVL18
 2303 0022 0F000000 		.4byte	.LVL20-1
 2304 0026 0100     		.2byte	0x1
 2305 0028 51       		.byte	0x51
 2306 0029 0F000000 		.4byte	.LVL20-1
 2307 002d 4A000000 		.4byte	.LFE72
 2308 0031 0100     		.2byte	0x1
 2309 0033 56       		.byte	0x56
 2310 0034 00000000 		.4byte	0
 2311 0038 00000000 		.4byte	0
 2312              	.LLST2:
 2313 003c 00000000 		.4byte	.LVL18
 2314 0040 0F000000 		.4byte	.LVL20-1
 2315 0044 0100     		.2byte	0x1
 2316 0046 52       		.byte	0x52
 2317 0047 0F000000 		.4byte	.LVL20-1
 2318 004b 4A000000 		.4byte	.LFE72
 2319 004f 0100     		.2byte	0x1
 2320 0051 55       		.byte	0x55
 2321 0052 00000000 		.4byte	0
 2322 0056 00000000 		.4byte	0
 2323              	.LLST3:
 2324 005a 00000000 		.4byte	.LVL18
 2325 005e 0F000000 		.4byte	.LVL20-1
 2326 0062 0100     		.2byte	0x1
 2327 0064 53       		.byte	0x53
 2328 0065 0F000000 		.4byte	.LVL20-1
 2329 0069 4A000000 		.4byte	.LFE72
 2330 006d 0100     		.2byte	0x1
 2331 006f 54       		.byte	0x54
 2332 0070 00000000 		.4byte	0
 2333 0074 00000000 		.4byte	0
 2334              	.LLST4:
 2335 0078 02000000 		.4byte	.LVL29
 2336 007c 50000000 		.4byte	.LVL35
 2337 0080 0200     		.2byte	0x2
 2338 0082 31       		.byte	0x31
 2339 0083 9F       		.byte	0x9f
 2340 0084 50000000 		.4byte	.LVL35
 2341 0088 5A000000 		.4byte	.LVL36
 2342 008c 0200     		.2byte	0x2
 2343 008e 32       		.byte	0x32
 2344 008f 9F       		.byte	0x9f
 2345 0090 5A000000 		.4byte	.LVL36
 2346 0094 66000000 		.4byte	.LVL38
 2347 0098 0200     		.2byte	0x2
 2348 009a 31       		.byte	0x31
 2349 009b 9F       		.byte	0x9f
 2350 009c 66000000 		.4byte	.LVL38
 2351 00a0 6E000000 		.4byte	.LVL39
 2352 00a4 0200     		.2byte	0x2
 2353 00a6 32       		.byte	0x32
ARM GAS  C:\Users\degn\AppData\Local\Temp\ccNY7HAN.s 			page 47


 2354 00a7 9F       		.byte	0x9f
 2355 00a8 00000000 		.4byte	0
 2356 00ac 00000000 		.4byte	0
 2357              	.LLST5:
 2358 00b0 06000000 		.4byte	.LVL40
 2359 00b4 12000000 		.4byte	.LVL41
 2360 00b8 0100     		.2byte	0x1
 2361 00ba 50       		.byte	0x50
 2362 00bb 12000000 		.4byte	.LVL41
 2363 00bf 1A000000 		.4byte	.LVL42
 2364 00c3 0400     		.2byte	0x4
 2365 00c5 70       		.byte	0x70
 2366 00c6 8210     		.sleb128 2050
 2367 00c8 9F       		.byte	0x9f
 2368 00c9 34000000 		.4byte	.LVL44
 2369 00cd 3E000000 		.4byte	.LVL45
 2370 00d1 0100     		.2byte	0x1
 2371 00d3 50       		.byte	0x50
 2372 00d4 64000000 		.4byte	.LVL47
 2373 00d8 74000000 		.4byte	.LFE75
 2374 00dc 0100     		.2byte	0x1
 2375 00de 50       		.byte	0x50
 2376 00df 00000000 		.4byte	0
 2377 00e3 00000000 		.4byte	0
 2378              	.LLST6:
 2379 00e7 00000000 		.4byte	.LVL56
 2380 00eb 10000000 		.4byte	.LVL57
 2381 00ef 0100     		.2byte	0x1
 2382 00f1 50       		.byte	0x50
 2383 00f2 10000000 		.4byte	.LVL57
 2384 00f6 12000000 		.4byte	.LVL58
 2385 00fa 0400     		.2byte	0x4
 2386 00fc F3       		.byte	0xf3
 2387 00fd 01       		.uleb128 0x1
 2388 00fe 50       		.byte	0x50
 2389 00ff 9F       		.byte	0x9f
 2390 0100 12000000 		.4byte	.LVL58
 2391 0104 18000000 		.4byte	.LVL60
 2392 0108 0100     		.2byte	0x1
 2393 010a 50       		.byte	0x50
 2394 010b 18000000 		.4byte	.LVL60
 2395 010f 20000000 		.4byte	.LVL61
 2396 0113 0300     		.2byte	0x3
 2397 0115 70       		.byte	0x70
 2398 0116 1E       		.sleb128 30
 2399 0117 9F       		.byte	0x9f
 2400 0118 00000000 		.4byte	0
 2401 011c 00000000 		.4byte	0
 2402              	.LLST7:
 2403 0120 2A000000 		.4byte	.LVL62
 2404 0124 2C000000 		.4byte	.LVL63
 2405 0128 0300     		.2byte	0x3
 2406 012a 70       		.byte	0x70
 2407 012b 57       		.sleb128 -41
 2408 012c 9F       		.byte	0x9f
 2409 012d 2C000000 		.4byte	.LVL63
 2410 0131 34000000 		.4byte	.LFE77
ARM GAS  C:\Users\degn\AppData\Local\Temp\ccNY7HAN.s 			page 48


 2411 0135 0100     		.2byte	0x1
 2412 0137 50       		.byte	0x50
 2413 0138 00000000 		.4byte	0
 2414 013c 00000000 		.4byte	0
 2415              	.LLST8:
 2416 0140 02000000 		.4byte	.LVL64
 2417 0144 08000000 		.4byte	.LVL65
 2418 0148 0200     		.2byte	0x2
 2419 014a 30       		.byte	0x30
 2420 014b 9F       		.byte	0x9f
 2421 014c 08000000 		.4byte	.LVL65
 2422 0150 1C000000 		.4byte	.LVL69
 2423 0154 0100     		.2byte	0x1
 2424 0156 55       		.byte	0x55
 2425 0157 1C000000 		.4byte	.LVL69
 2426 015b 20000000 		.4byte	.LVL70
 2427 015f 0800     		.2byte	0x8
 2428 0161 70       		.byte	0x70
 2429 0162 00       		.sleb128 0
 2430 0163 32       		.byte	0x32
 2431 0164 26       		.byte	0x26
 2432 0165 75       		.byte	0x75
 2433 0166 00       		.sleb128 0
 2434 0167 1C       		.byte	0x1c
 2435 0168 9F       		.byte	0x9f
 2436 0169 20000000 		.4byte	.LVL70
 2437 016d 23000000 		.4byte	.LVL71-1
 2438 0171 0100     		.2byte	0x1
 2439 0173 50       		.byte	0x50
 2440 0174 00000000 		.4byte	0
 2441 0178 00000000 		.4byte	0
 2442              	.LLST9:
 2443 017c 02000000 		.4byte	.LVL64
 2444 0180 08000000 		.4byte	.LVL65
 2445 0184 0200     		.2byte	0x2
 2446 0186 30       		.byte	0x30
 2447 0187 9F       		.byte	0x9f
 2448 0188 08000000 		.4byte	.LVL65
 2449 018c 2C000000 		.4byte	.LVL72
 2450 0190 0100     		.2byte	0x1
 2451 0192 54       		.byte	0x54
 2452 0193 00000000 		.4byte	0
 2453 0197 00000000 		.4byte	0
 2454              		.section	.debug_aranges,"",%progbits
 2455 0000 84000000 		.4byte	0x84
 2456 0004 0200     		.2byte	0x2
 2457 0006 00000000 		.4byte	.Ldebug_info0
 2458 000a 04       		.byte	0x4
 2459 000b 00       		.byte	0
 2460 000c 0000     		.2byte	0
 2461 000e 0000     		.2byte	0
 2462 0010 00000000 		.4byte	.LFB64
 2463 0014 38000000 		.4byte	.LFE64-.LFB64
 2464 0018 00000000 		.4byte	.LFB65
 2465 001c 38000000 		.4byte	.LFE65-.LFB65
 2466 0020 00000000 		.4byte	.LFB68
 2467 0024 3C000000 		.4byte	.LFE68-.LFB68
ARM GAS  C:\Users\degn\AppData\Local\Temp\ccNY7HAN.s 			page 49


 2468 0028 00000000 		.4byte	.LFB69
 2469 002c 0C000000 		.4byte	.LFE69-.LFB69
 2470 0030 00000000 		.4byte	.LFB70
 2471 0034 0C000000 		.4byte	.LFE70-.LFB70
 2472 0038 00000000 		.4byte	.LFB71
 2473 003c 24000000 		.4byte	.LFE71-.LFB71
 2474 0040 00000000 		.4byte	.LFB67
 2475 0044 14000000 		.4byte	.LFE67-.LFB67
 2476 0048 00000000 		.4byte	.LFB72
 2477 004c 4A000000 		.4byte	.LFE72-.LFB72
 2478 0050 00000000 		.4byte	.LFB74
 2479 0054 9C000000 		.4byte	.LFE74-.LFB74
 2480 0058 00000000 		.4byte	.LFB75
 2481 005c 74000000 		.4byte	.LFE75-.LFB75
 2482 0060 00000000 		.4byte	.LFB76
 2483 0064 08000000 		.4byte	.LFE76-.LFB76
 2484 0068 00000000 		.4byte	.LFB66
 2485 006c 8C000000 		.4byte	.LFE66-.LFB66
 2486 0070 00000000 		.4byte	.LFB77
 2487 0074 34000000 		.4byte	.LFE77-.LFB77
 2488 0078 00000000 		.4byte	.LFB73
 2489 007c 34000000 		.4byte	.LFE73-.LFB73
 2490 0080 00000000 		.4byte	0
 2491 0084 00000000 		.4byte	0
 2492              		.section	.debug_ranges,"",%progbits
 2493              	.Ldebug_ranges0:
 2494 0000 02000000 		.4byte	.LBB2
 2495 0004 04000000 		.4byte	.LBE2
 2496 0008 06000000 		.4byte	.LBB3
 2497 000c 14000000 		.4byte	.LBE3
 2498 0010 00000000 		.4byte	0
 2499 0014 00000000 		.4byte	0
 2500 0018 00000000 		.4byte	.LFB64
 2501 001c 38000000 		.4byte	.LFE64
 2502 0020 00000000 		.4byte	.LFB65
 2503 0024 38000000 		.4byte	.LFE65
 2504 0028 00000000 		.4byte	.LFB68
 2505 002c 3C000000 		.4byte	.LFE68
 2506 0030 00000000 		.4byte	.LFB69
 2507 0034 0C000000 		.4byte	.LFE69
 2508 0038 00000000 		.4byte	.LFB70
 2509 003c 0C000000 		.4byte	.LFE70
 2510 0040 00000000 		.4byte	.LFB71
 2511 0044 24000000 		.4byte	.LFE71
 2512 0048 00000000 		.4byte	.LFB67
 2513 004c 14000000 		.4byte	.LFE67
 2514 0050 00000000 		.4byte	.LFB72
 2515 0054 4A000000 		.4byte	.LFE72
 2516 0058 00000000 		.4byte	.LFB74
 2517 005c 9C000000 		.4byte	.LFE74
 2518 0060 00000000 		.4byte	.LFB75
 2519 0064 74000000 		.4byte	.LFE75
 2520 0068 00000000 		.4byte	.LFB76
 2521 006c 08000000 		.4byte	.LFE76
 2522 0070 00000000 		.4byte	.LFB66
 2523 0074 8C000000 		.4byte	.LFE66
 2524 0078 00000000 		.4byte	.LFB77
ARM GAS  C:\Users\degn\AppData\Local\Temp\ccNY7HAN.s 			page 50


 2525 007c 34000000 		.4byte	.LFE77
 2526 0080 00000000 		.4byte	.LFB73
 2527 0084 34000000 		.4byte	.LFE73
 2528 0088 00000000 		.4byte	0
 2529 008c 00000000 		.4byte	0
 2530              		.section	.debug_line,"",%progbits
 2531              	.Ldebug_line0:
 2532 0000 8E030000 		.section	.debug_str,"MS",%progbits,1
 2532      02003502 
 2532      00000201 
 2532      FB0E0D00 
 2532      01010101 
 2533              	.LASF16:
 2534 0000 6C6F6E67 		.ascii	"long double\000"
 2534      20646F75 
 2534      626C6500 
 2535              	.LASF60:
 2536 000c 4144435F 		.ascii	"ADC_SAR_1_Start\000"
 2536      5341525F 
 2536      315F5374 
 2536      61727400 
 2537              	.LASF62:
 2538 001c 50574D5F 		.ascii	"PWM_1_Start\000"
 2538      315F5374 
 2538      61727400 
 2539              	.LASF51:
 2540 0028 74656D70 		.ascii	"tempbuffer\000"
 2540      62756666 
 2540      657200
 2541              	.LASF55:
 2542 0033 4C43445F 		.ascii	"LCD_WriteControl\000"
 2542      57726974 
 2542      65436F6E 
 2542      74726F6C 
 2542      00
 2543              	.LASF40:
 2544 0044 6164635F 		.ascii	"adc_max\000"
 2544      6D617800 
 2545              	.LASF2:
 2546 004c 73686F72 		.ascii	"short int\000"
 2546      7420696E 
 2546      7400
 2547              	.LASF17:
 2548 0056 73697A65 		.ascii	"sizetype\000"
 2548      74797065 
 2548      00
 2549              	.LASF35:
 2550 005f 6A756D70 		.ascii	"jump\000"
 2550      00
 2551              	.LASF8:
 2552 0064 6C6F6E67 		.ascii	"long long int\000"
 2552      206C6F6E 
 2552      6720696E 
 2552      7400
 2553              	.LASF36:
 2554 0072 6D6F746F 		.ascii	"motorSwitch\000"
 2554      72537769 
ARM GAS  C:\Users\degn\AppData\Local\Temp\ccNY7HAN.s 			page 51


 2554      74636800 
 2555              	.LASF49:
 2556 007e 4C434462 		.ascii	"LCDbuffer\000"
 2556      75666665 
 2556      7200
 2557              	.LASF38:
 2558 0088 6164635F 		.ascii	"adc_value\000"
 2558      76616C75 
 2558      6500
 2559              	.LASF27:
 2560 0092 496E6974 		.ascii	"Init_ISR\000"
 2560      5F495352 
 2560      00
 2561              	.LASF45:
 2562 009b 6C6F6F70 		.ascii	"loops\000"
 2562      7300
 2563              	.LASF68:
 2564 00a1 4144435F 		.ascii	"ADC_SAR_1_GetResult16\000"
 2564      5341525F 
 2564      315F4765 
 2564      74526573 
 2564      756C7431 
 2565              	.LASF44:
 2566 00b7 6D6F6465 		.ascii	"mode_1\000"
 2566      5F3100
 2567              	.LASF33:
 2568 00be 6D6F6465 		.ascii	"mode_2\000"
 2568      5F3200
 2569              	.LASF34:
 2570 00c5 6D6F6465 		.ascii	"mode_3\000"
 2570      5F3300
 2571              	.LASF13:
 2572 00cc 666C6F61 		.ascii	"float\000"
 2572      7400
 2573              	.LASF70:
 2574 00d2 4D6F746F 		.ascii	"MotorSwitchPin_Read\000"
 2574      72537769 
 2574      74636850 
 2574      696E5F52 
 2574      65616400 
 2575              	.LASF31:
 2576 00e6 656E6442 		.ascii	"endButtomChar\000"
 2576      7574746F 
 2576      6D436861 
 2576      7200
 2577              	.LASF6:
 2578 00f4 6C6F6E67 		.ascii	"long int\000"
 2578      20696E74 
 2578      00
 2579              	.LASF30:
 2580 00fd 62757474 		.ascii	"buttom\000"
 2580      6F6D00
 2581              	.LASF50:
 2582 0104 626C6F63 		.ascii	"block\000"
 2582      6B00
 2583              	.LASF25:
 2584 010a 496E6974 		.ascii	"Init_ADC\000"
ARM GAS  C:\Users\degn\AppData\Local\Temp\ccNY7HAN.s 			page 52


 2584      5F414443 
 2584      00
 2585              	.LASF32:
 2586 0113 77726974 		.ascii	"writeLCD\000"
 2586      654C4344 
 2586      00
 2587              	.LASF67:
 2588 011c 4C43445F 		.ascii	"LCD_PutChar\000"
 2588      50757443 
 2588      68617200 
 2589              	.LASF56:
 2590 0128 4C43445F 		.ascii	"LCD_Start\000"
 2590      53746172 
 2590      7400
 2591              	.LASF22:
 2592 0132 4953525F 		.ascii	"ISR_gradient_handler\000"
 2592      67726164 
 2592      69656E74 
 2592      5F68616E 
 2592      646C6572 
 2593              	.LASF43:
 2594 0147 64656772 		.ascii	"degrees\000"
 2594      65657300 
 2595              	.LASF76:
 2596 014f 61646354 		.ascii	"adcToDegrees\000"
 2596      6F446567 
 2596      72656573 
 2596      00
 2597              	.LASF37:
 2598 015c 4953525F 		.ascii	"ISR_print_handler\000"
 2598      7072696E 
 2598      745F6861 
 2598      6E646C65 
 2598      7200
 2599              	.LASF1:
 2600 016e 756E7369 		.ascii	"unsigned char\000"
 2600      676E6564 
 2600      20636861 
 2600      7200
 2601              	.LASF71:
 2602 017c 73707269 		.ascii	"sprintf\000"
 2602      6E746600 
 2603              	.LASF0:
 2604 0184 7369676E 		.ascii	"signed char\000"
 2604      65642063 
 2604      68617200 
 2605              	.LASF28:
 2606 0190 696E6974 		.ascii	"init_interface\000"
 2606      5F696E74 
 2606      65726661 
 2606      636500
 2607              	.LASF9:
 2608 019f 6C6F6E67 		.ascii	"long long unsigned int\000"
 2608      206C6F6E 
 2608      6720756E 
 2608      7369676E 
 2608      65642069 
ARM GAS  C:\Users\degn\AppData\Local\Temp\ccNY7HAN.s 			page 53


 2609              	.LASF74:
 2610 01b6 433A5C55 		.ascii	"C:\\Users\\degn\\OneDrive - Aarhus universitet\\Skr"
 2610      73657273 
 2610      5C646567 
 2610      6E5C4F6E 
 2610      65447269 
 2611 01e5 69766562 		.ascii	"ivebord\\AU\\E4\\PRJ4\\Git\\E4PRJ\\PSoC\\Analogkont"
 2611      6F72645C 
 2611      41555C45 
 2611      345C5052 
 2611      4A345C47 
 2612 0211 726F6C6C 		.ascii	"roller\\PRJ4.cydsn\000"
 2612      65725C50 
 2612      524A342E 
 2612      63796473 
 2612      6E00
 2613              	.LASF10:
 2614 0223 756E7369 		.ascii	"unsigned int\000"
 2614      676E6564 
 2614      20696E74 
 2614      00
 2615              	.LASF58:
 2616 0230 4C43445F 		.ascii	"LCD_PrintString\000"
 2616      5072696E 
 2616      74537472 
 2616      696E6700 
 2617              	.LASF42:
 2618 0240 6465675F 		.ascii	"deg_max\000"
 2618      6D617800 
 2619              	.LASF66:
 2620 0248 6973725F 		.ascii	"isr_gradient_StartEx\000"
 2620      67726164 
 2620      69656E74 
 2620      5F537461 
 2620      72744578 
 2621              	.LASF21:
 2622 025d 756E6C6F 		.ascii	"unlock\000"
 2622      636B00
 2623              	.LASF63:
 2624 0264 50574D5F 		.ascii	"PWM_2_Start\000"
 2624      325F5374 
 2624      61727400 
 2625              	.LASF3:
 2626 0270 73686F72 		.ascii	"short unsigned int\000"
 2626      7420756E 
 2626      7369676E 
 2626      65642069 
 2626      6E7400
 2627              	.LASF52:
 2628 0283 70617373 		.ascii	"pass\000"
 2628      00
 2629              	.LASF15:
 2630 0288 63686172 		.ascii	"char\000"
 2630      00
 2631              	.LASF39:
 2632 028d 6164635F 		.ascii	"adc_min\000"
 2632      6D696E00 
ARM GAS  C:\Users\degn\AppData\Local\Temp\ccNY7HAN.s 			page 54


 2633              	.LASF61:
 2634 0295 4144435F 		.ascii	"ADC_SAR_1_StartConvert\000"
 2634      5341525F 
 2634      315F5374 
 2634      61727443 
 2634      6F6E7665 
 2635              	.LASF12:
 2636 02ac 696E7433 		.ascii	"int32_t\000"
 2636      325F7400 
 2637              	.LASF19:
 2638 02b4 6C6F636B 		.ascii	"lock\000"
 2638      00
 2639              	.LASF41:
 2640 02b9 6465675F 		.ascii	"deg_min\000"
 2640      6D696E00 
 2641              	.LASF11:
 2642 02c1 696E7431 		.ascii	"int16_t\000"
 2642      365F7400 
 2643              	.LASF54:
 2644 02c9 67726164 		.ascii	"gradientCount\000"
 2644      69656E74 
 2644      436F756E 
 2644      7400
 2645              	.LASF65:
 2646 02d7 6973725F 		.ascii	"isr_print_StartEx\000"
 2646      7072696E 
 2646      745F5374 
 2646      61727445 
 2646      7800
 2647              	.LASF7:
 2648 02e9 6C6F6E67 		.ascii	"long unsigned int\000"
 2648      20756E73 
 2648      69676E65 
 2648      6420696E 
 2648      7400
 2649              	.LASF64:
 2650 02fb 6973725F 		.ascii	"isr_toggle_StartEx\000"
 2650      746F6767 
 2650      6C655F53 
 2650      74617274 
 2650      457800
 2651              	.LASF14:
 2652 030e 646F7562 		.ascii	"double\000"
 2652      6C6500
 2653              	.LASF53:
 2654 0315 67726164 		.ascii	"gradientShift\000"
 2654      69656E74 
 2654      53686966 
 2654      7400
 2655              	.LASF46:
 2656 0323 49544D5F 		.ascii	"ITM_RxBuffer\000"
 2656      52784275 
 2656      66666572 
 2656      00
 2657              	.LASF26:
 2658 0330 496E6974 		.ascii	"Init_PWM\000"
 2658      5F50574D 
ARM GAS  C:\Users\degn\AppData\Local\Temp\ccNY7HAN.s 			page 55


 2658      00
 2659              	.LASF20:
 2660 0339 756E6465 		.ascii	"undefined\000"
 2660      66696E65 
 2660      6400
 2661              	.LASF47:
 2662 0343 636F6E76 		.ascii	"convertedResult\000"
 2662      65727465 
 2662      64526573 
 2662      756C7400 
 2663              	.LASF5:
 2664 0353 5F5F696E 		.ascii	"__int32_t\000"
 2664      7433325F 
 2664      7400
 2665              	.LASF4:
 2666 035d 5F5F696E 		.ascii	"__int16_t\000"
 2666      7431365F 
 2666      7400
 2667              	.LASF73:
 2668 0367 696E7465 		.ascii	"interface.c\000"
 2668      72666163 
 2668      652E6300 
 2669              	.LASF57:
 2670 0373 4C43445F 		.ascii	"LCD_Position\000"
 2670      506F7369 
 2670      74696F6E 
 2670      00
 2671              	.LASF24:
 2672 0380 496E6974 		.ascii	"Init_LCD\000"
 2672      5F4C4344 
 2672      00
 2673              	.LASF29:
 2674 0389 656E6454 		.ascii	"endTopChar\000"
 2674      6F704368 
 2674      617200
 2675              	.LASF18:
 2676 0394 64656772 		.ascii	"degree\000"
 2676      656500
 2677              	.LASF75:
 2678 039b 73796D62 		.ascii	"symbol\000"
 2678      6F6C00
 2679              	.LASF72:
 2680 03a2 474E5520 		.ascii	"GNU C11 5.4.1 20160609 (release) [ARM/embedded-5-br"
 2680      43313120 
 2680      352E342E 
 2680      31203230 
 2680      31363036 
 2681 03d5 616E6368 		.ascii	"anch revision 237715] -mcpu=cortex-m3 -mthumb -g -O"
 2681      20726576 
 2681      6973696F 
 2681      6E203233 
 2681      37373135 
 2682 0408 67202D66 		.ascii	"g -ffunction-sections -ffat-lto-objects\000"
 2682      66756E63 
 2682      74696F6E 
 2682      2D736563 
 2682      74696F6E 
ARM GAS  C:\Users\degn\AppData\Local\Temp\ccNY7HAN.s 			page 56


 2683              	.LASF59:
 2684 0430 43794465 		.ascii	"CyDelay\000"
 2684      6C617900 
 2685              	.LASF48:
 2686 0438 746F6767 		.ascii	"toggle\000"
 2686      6C6500
 2687              	.LASF23:
 2688 043f 4953525F 		.ascii	"ISR_toggle_handler\000"
 2688      746F6767 
 2688      6C655F68 
 2688      616E646C 
 2688      657200
 2689              	.LASF69:
 2690 0452 50574D5F 		.ascii	"PWM_2_WritePeriod\000"
 2690      325F5772 
 2690      69746550 
 2690      6572696F 
 2690      6400
 2691              		.ident	"GCC: (GNU Tools for ARM Embedded Processors) 5.4.1 20160609 (release) [ARM/embedded-5-bran
