ARM GAS  C:\Users\degn\AppData\Local\Temp\ccFJuEuV.s 			page 1


   1              		.syntax unified
   2              		.cpu cortex-m3
   3              		.fpu softvfp
   4              		.eabi_attribute 20, 1
   5              		.eabi_attribute 21, 1
   6              		.eabi_attribute 23, 3
   7              		.eabi_attribute 24, 1
   8              		.eabi_attribute 25, 1
   9              		.eabi_attribute 26, 1
  10              		.eabi_attribute 30, 1
  11              		.eabi_attribute 34, 1
  12              		.eabi_attribute 18, 4
  13              		.thumb
  14              		.syntax unified
  15              		.file	"interface.c"
  16              		.text
  17              	.Ltext0:
  18              		.cfi_sections	.debug_frame
  19              		.section	.text.ISR_gradient_handler,"ax",%progbits
  20              		.align	2
  21              		.global	ISR_gradient_handler
  22              		.thumb
  23              		.thumb_func
  24              		.type	ISR_gradient_handler, %function
  25              	ISR_gradient_handler:
  26              	.LFB64:
  27              		.file 1 "interface.c"
   1:interface.c   **** #include "project.h"
   2:interface.c   **** 
   3:interface.c   **** #include "interface.h"
   4:interface.c   **** 
   5:interface.c   **** // Global Variels.
   6:interface.c   **** int16_t convertedResult = 0;
   7:interface.c   **** int toggle = 3;
   8:interface.c   **** int deg = 0;
   9:interface.c   **** char LCDbuffer[20];
  10:interface.c   **** int block = 0;
  11:interface.c   **** char tempbuffer[20];
  12:interface.c   **** int pass = 1;
  13:interface.c   **** int gradientShift = 0;
  14:interface.c   **** int gradientCount = 0;
  15:interface.c   **** 
  16:interface.c   **** // Define constants
  17:interface.c   **** #define adc_min 30   // ADC value corresponding to -41 degrees
  18:interface.c   **** #define adc_max 4050 // ADC value corresponding to +41 degrees
  19:interface.c   **** #define deg_min -35  // Minimum degrees
  20:interface.c   **** #define deg_max 35   // Maximum degrees
  21:interface.c   **** 
  22:interface.c   **** enum symbol
  23:interface.c   **** {
  24:interface.c   ****     degree = 0,
  25:interface.c   ****     lock,
  26:interface.c   ****     undefined,
  27:interface.c   ****     unlock
  28:interface.c   **** };
  29:interface.c   **** 
  30:interface.c   **** CY_ISR(ISR_gradient_handler)
ARM GAS  C:\Users\degn\AppData\Local\Temp\ccFJuEuV.s 			page 2


  31:interface.c   **** {
  28              		.loc 1 31 0
  29              		.cfi_startproc
  30              		@ args = 0, pretend = 0, frame = 0
  31              		@ frame_needed = 0, uses_anonymous_args = 0
  32              		@ link register save eliminated.
  32:interface.c   ****     if (0 == gradientShift)
  33              		.loc 1 32 0
  34 0000 0C4B     		ldr	r3, .L4
  35 0002 1B68     		ldr	r3, [r3]
  36 0004 A3B1     		cbz	r3, .L1
  33:interface.c   ****     {
  34:interface.c   ****         return;
  35:interface.c   ****     }
  36:interface.c   ****     else if (-1 == gradientShift)
  37              		.loc 1 36 0
  38 0006 B3F1FF3F 		cmp	r3, #-1
  39 000a 08D1     		bne	.L3
  37:interface.c   ****     {
  38:interface.c   ****         if (-40 <= gradientCount)
  40              		.loc 1 38 0
  41 000c 094B     		ldr	r3, .L4
  42 000e 5B68     		ldr	r3, [r3, #4]
  43 0010 13F1280F 		cmn	r3, #40
  44 0014 0CDB     		blt	.L1
  39:interface.c   ****         {
  40:interface.c   ****             gradientCount = gradientCount - 1;
  45              		.loc 1 40 0
  46 0016 013B     		subs	r3, r3, #1
  47 0018 064A     		ldr	r2, .L4
  48 001a 5360     		str	r3, [r2, #4]
  49 001c 7047     		bx	lr
  50              	.L3:
  41:interface.c   ****         }
  42:interface.c   ****     }
  43:interface.c   ****     else if (1 == gradientShift)
  51              		.loc 1 43 0
  52 001e 012B     		cmp	r3, #1
  53 0020 06D1     		bne	.L1
  44:interface.c   ****     {
  45:interface.c   ****         if (40 >= gradientCount)
  54              		.loc 1 45 0
  55 0022 044B     		ldr	r3, .L4
  56 0024 5B68     		ldr	r3, [r3, #4]
  57 0026 282B     		cmp	r3, #40
  58 0028 02DC     		bgt	.L1
  46:interface.c   ****         {
  47:interface.c   ****             gradientCount = gradientCount + 1;
  59              		.loc 1 47 0
  60 002a 0133     		adds	r3, r3, #1
  61 002c 014A     		ldr	r2, .L4
  62 002e 5360     		str	r3, [r2, #4]
  63              	.L1:
  64 0030 7047     		bx	lr
  65              	.L5:
  66 0032 00BF     		.align	2
  67              	.L4:
ARM GAS  C:\Users\degn\AppData\Local\Temp\ccFJuEuV.s 			page 3


  68 0034 00000000 		.word	.LANCHOR0
  69              		.cfi_endproc
  70              	.LFE64:
  71              		.size	ISR_gradient_handler, .-ISR_gradient_handler
  72              		.section	.text.ISR_toggle_handler,"ax",%progbits
  73              		.align	2
  74              		.global	ISR_toggle_handler
  75              		.thumb
  76              		.thumb_func
  77              		.type	ISR_toggle_handler, %function
  78              	ISR_toggle_handler:
  79              	.LFB65:
  48:interface.c   ****         }
  49:interface.c   ****     }
  50:interface.c   **** }
  51:interface.c   **** 
  52:interface.c   **** CY_ISR(ISR_toggle_handler)
  53:interface.c   **** {
  80              		.loc 1 53 0
  81              		.cfi_startproc
  82              		@ args = 0, pretend = 0, frame = 0
  83              		@ frame_needed = 0, uses_anonymous_args = 0
  84              		@ link register save eliminated.
  54:interface.c   ****     deg = convertedResult;
  85              		.loc 1 54 0
  86 0000 0B4B     		ldr	r3, .L10
  87 0002 B3F90C20 		ldrsh	r2, [r3, #12]
  88 0006 9A60     		str	r2, [r3, #8]
  55:interface.c   ****     convertedResult = deg;
  56:interface.c   ****     if (1 == toggle)
  89              		.loc 1 56 0
  90 0008 0A4B     		ldr	r3, .L10+4
  91 000a 1B68     		ldr	r3, [r3]
  92 000c 012B     		cmp	r3, #1
  93 000e 03D1     		bne	.L7
  57:interface.c   ****     {
  58:interface.c   ****         toggle = 2;
  94              		.loc 1 58 0
  95 0010 0222     		movs	r2, #2
  96 0012 084B     		ldr	r3, .L10+4
  97 0014 1A60     		str	r2, [r3]
  98 0016 7047     		bx	lr
  99              	.L7:
  59:interface.c   ****     }
  60:interface.c   ****     else if (2 == toggle)
 100              		.loc 1 60 0
 101 0018 022B     		cmp	r3, #2
 102 001a 03D1     		bne	.L9
  61:interface.c   ****     {
  62:interface.c   ****         toggle = 3;
 103              		.loc 1 62 0
 104 001c 0322     		movs	r2, #3
 105 001e 054B     		ldr	r3, .L10+4
 106 0020 1A60     		str	r2, [r3]
 107 0022 7047     		bx	lr
 108              	.L9:
  63:interface.c   ****     }
ARM GAS  C:\Users\degn\AppData\Local\Temp\ccFJuEuV.s 			page 4


  64:interface.c   ****     else if (3 == toggle)
 109              		.loc 1 64 0
 110 0024 032B     		cmp	r3, #3
 111 0026 02D1     		bne	.L6
  65:interface.c   ****     {
  66:interface.c   ****         toggle = 1;
 112              		.loc 1 66 0
 113 0028 0122     		movs	r2, #1
 114 002a 024B     		ldr	r3, .L10+4
 115 002c 1A60     		str	r2, [r3]
 116              	.L6:
 117 002e 7047     		bx	lr
 118              	.L11:
 119              		.align	2
 120              	.L10:
 121 0030 00000000 		.word	.LANCHOR0
 122 0034 00000000 		.word	.LANCHOR1
 123              		.cfi_endproc
 124              	.LFE65:
 125              		.size	ISR_toggle_handler, .-ISR_toggle_handler
 126              		.section	.text.ISR_motorSwitch_On_handler,"ax",%progbits
 127              		.align	2
 128              		.global	ISR_motorSwitch_On_handler
 129              		.thumb
 130              		.thumb_func
 131              		.type	ISR_motorSwitch_On_handler, %function
 132              	ISR_motorSwitch_On_handler:
 133              	.LFB67:
  67:interface.c   ****     }
  68:interface.c   **** }
  69:interface.c   **** 
  70:interface.c   **** CY_ISR(ISR_print_handler)
  71:interface.c   **** {
  72:interface.c   ****     if (motorSwitch())
  73:interface.c   ****     {
  74:interface.c   ****         if (1 == toggle)
  75:interface.c   ****         {
  76:interface.c   ****             sprintf(LCDbuffer, "%i             ", convertedResult);
  77:interface.c   ****             writeLCD("mode 1", unlock, LCDbuffer, degree);
  78:interface.c   ****         }
  79:interface.c   ****         else if (2 == toggle)
  80:interface.c   ****         {
  81:interface.c   ****             sprintf(LCDbuffer, "%i             ", convertedResult);
  82:interface.c   ****             writeLCD("mode 2", lock, LCDbuffer, degree);
  83:interface.c   ****         }
  84:interface.c   ****         else
  85:interface.c   ****         {
  86:interface.c   ****             sprintf(LCDbuffer, "%i             ", gradientCount);
  87:interface.c   ****             writeLCD("mode 3", lock, LCDbuffer, degree);
  88:interface.c   ****         }  
  89:interface.c   ****     }
  90:interface.c   **** }
  91:interface.c   **** 
  92:interface.c   **** CY_ISR(ISR_motorSwitch_On_handler)
  93:interface.c   **** {
 134              		.loc 1 93 0
 135              		.cfi_startproc
ARM GAS  C:\Users\degn\AppData\Local\Temp\ccFJuEuV.s 			page 5


 136              		@ args = 0, pretend = 0, frame = 0
 137              		@ frame_needed = 0, uses_anonymous_args = 0
 138 0000 08B5     		push	{r3, lr}
 139              		.cfi_def_cfa_offset 8
 140              		.cfi_offset 3, -8
 141              		.cfi_offset 14, -4
  94:interface.c   ****     LCD_ClearDisplay();
 142              		.loc 1 94 0
 143 0002 0120     		movs	r0, #1
 144 0004 FFF7FEFF 		bl	LCD_WriteControl
 145              	.LVL0:
  95:interface.c   ****     LCD_Position(0, 0);
 146              		.loc 1 95 0
 147 0008 0021     		movs	r1, #0
 148 000a 0846     		mov	r0, r1
 149 000c FFF7FEFF 		bl	LCD_Position
 150              	.LVL1:
  96:interface.c   ****     LCD_PrintString("On");
 151              		.loc 1 96 0
 152 0010 0148     		ldr	r0, .L14
 153 0012 FFF7FEFF 		bl	LCD_PrintString
 154              	.LVL2:
 155 0016 08BD     		pop	{r3, pc}
 156              	.L15:
 157              		.align	2
 158              	.L14:
 159 0018 00000000 		.word	.LC0
 160              		.cfi_endproc
 161              	.LFE67:
 162              		.size	ISR_motorSwitch_On_handler, .-ISR_motorSwitch_On_handler
 163              		.section	.text.ISR_motorSwitch_Off_handler,"ax",%progbits
 164              		.align	2
 165              		.global	ISR_motorSwitch_Off_handler
 166              		.thumb
 167              		.thumb_func
 168              		.type	ISR_motorSwitch_Off_handler, %function
 169              	ISR_motorSwitch_Off_handler:
 170              	.LFB68:
  97:interface.c   **** }
  98:interface.c   **** CY_ISR(ISR_motorSwitch_Off_handler)
  99:interface.c   **** {
 171              		.loc 1 99 0
 172              		.cfi_startproc
 173              		@ args = 0, pretend = 0, frame = 0
 174              		@ frame_needed = 0, uses_anonymous_args = 0
 175 0000 08B5     		push	{r3, lr}
 176              		.cfi_def_cfa_offset 8
 177              		.cfi_offset 3, -8
 178              		.cfi_offset 14, -4
 100:interface.c   ****     LCD_ClearDisplay();
 179              		.loc 1 100 0
 180 0002 0120     		movs	r0, #1
 181 0004 FFF7FEFF 		bl	LCD_WriteControl
 182              	.LVL3:
 101:interface.c   ****     LCD_Position(0, 0);
 183              		.loc 1 101 0
 184 0008 0021     		movs	r1, #0
ARM GAS  C:\Users\degn\AppData\Local\Temp\ccFJuEuV.s 			page 6


 185 000a 0846     		mov	r0, r1
 186 000c FFF7FEFF 		bl	LCD_Position
 187              	.LVL4:
 102:interface.c   ****     LCD_PrintString("Off");
 188              		.loc 1 102 0
 189 0010 0148     		ldr	r0, .L18
 190 0012 FFF7FEFF 		bl	LCD_PrintString
 191              	.LVL5:
 192 0016 08BD     		pop	{r3, pc}
 193              	.L19:
 194              		.align	2
 195              	.L18:
 196 0018 04000000 		.word	.LC1
 197              		.cfi_endproc
 198              	.LFE68:
 199              		.size	ISR_motorSwitch_Off_handler, .-ISR_motorSwitch_Off_handler
 200              		.section	.text.Init_LCD,"ax",%progbits
 201              		.align	2
 202              		.global	Init_LCD
 203              		.thumb
 204              		.thumb_func
 205              		.type	Init_LCD, %function
 206              	Init_LCD:
 207              	.LFB70:
 103:interface.c   **** }
 104:interface.c   **** 
 105:interface.c   **** void init_interface()
 106:interface.c   **** {
 107:interface.c   ****     Init_LCD();
 108:interface.c   ****     //Init_ISR();
 109:interface.c   ****     //Init_PWM();
 110:interface.c   ****     Init_ADC();
 111:interface.c   ****     isr_motorSwitch_On_StartEx(ISR_motorSwitch_On_handler);
 112:interface.c   ****     isr_motorSwitch_Off_StartEx(ISR_motorSwitch_Off_handler);
 113:interface.c   **** }
 114:interface.c   **** 
 115:interface.c   **** void Init_LCD()
 116:interface.c   **** {
 208              		.loc 1 116 0
 209              		.cfi_startproc
 210              		@ args = 0, pretend = 0, frame = 0
 211              		@ frame_needed = 0, uses_anonymous_args = 0
 212 0000 08B5     		push	{r3, lr}
 213              		.cfi_def_cfa_offset 8
 214              		.cfi_offset 3, -8
 215              		.cfi_offset 14, -4
 117:interface.c   ****     LCD_ClearDisplay();
 216              		.loc 1 117 0
 217 0002 0120     		movs	r0, #1
 218 0004 FFF7FEFF 		bl	LCD_WriteControl
 219              	.LVL6:
 118:interface.c   ****     LCD_Start();
 220              		.loc 1 118 0
 221 0008 FFF7FEFF 		bl	LCD_Start
 222              	.LVL7:
 119:interface.c   ****     LCD_Position(0, 0);
 223              		.loc 1 119 0
ARM GAS  C:\Users\degn\AppData\Local\Temp\ccFJuEuV.s 			page 7


 224 000c 0021     		movs	r1, #0
 225 000e 0846     		mov	r0, r1
 226 0010 FFF7FEFF 		bl	LCD_Position
 227              	.LVL8:
 120:interface.c   ****     LCD_PrintString("Starting");
 228              		.loc 1 120 0
 229 0014 0548     		ldr	r0, .L22
 230 0016 FFF7FEFF 		bl	LCD_PrintString
 231              	.LVL9:
 121:interface.c   ****     LCD_Position(1, 0);
 232              		.loc 1 121 0
 233 001a 0021     		movs	r1, #0
 234 001c 0120     		movs	r0, #1
 235 001e FFF7FEFF 		bl	LCD_Position
 236              	.LVL10:
 122:interface.c   ****     LCD_PrintString("Dron-A Lisa");
 237              		.loc 1 122 0
 238 0022 0348     		ldr	r0, .L22+4
 239 0024 FFF7FEFF 		bl	LCD_PrintString
 240              	.LVL11:
 241 0028 08BD     		pop	{r3, pc}
 242              	.L23:
 243 002a 00BF     		.align	2
 244              	.L22:
 245 002c 08000000 		.word	.LC2
 246 0030 14000000 		.word	.LC3
 247              		.cfi_endproc
 248              	.LFE70:
 249              		.size	Init_LCD, .-Init_LCD
 250              		.section	.text.Init_ADC,"ax",%progbits
 251              		.align	2
 252              		.global	Init_ADC
 253              		.thumb
 254              		.thumb_func
 255              		.type	Init_ADC, %function
 256              	Init_ADC:
 257              	.LFB71:
 123:interface.c   **** }
 124:interface.c   **** 
 125:interface.c   **** void Init_ADC()
 126:interface.c   **** {
 258              		.loc 1 126 0
 259              		.cfi_startproc
 260              		@ args = 0, pretend = 0, frame = 0
 261              		@ frame_needed = 0, uses_anonymous_args = 0
 262 0000 08B5     		push	{r3, lr}
 263              		.cfi_def_cfa_offset 8
 264              		.cfi_offset 3, -8
 265              		.cfi_offset 14, -4
 127:interface.c   ****     ADC_SAR_1_Start();
 266              		.loc 1 127 0
 267 0002 FFF7FEFF 		bl	ADC_SAR_1_Start
 268              	.LVL12:
 128:interface.c   ****     ADC_SAR_1_StartConvert();
 269              		.loc 1 128 0
 270 0006 FFF7FEFF 		bl	ADC_SAR_1_StartConvert
 271              	.LVL13:
ARM GAS  C:\Users\degn\AppData\Local\Temp\ccFJuEuV.s 			page 8


 272 000a 08BD     		pop	{r3, pc}
 273              		.cfi_endproc
 274              	.LFE71:
 275              		.size	Init_ADC, .-Init_ADC
 276              		.section	.text.init_interface,"ax",%progbits
 277              		.align	2
 278              		.global	init_interface
 279              		.thumb
 280              		.thumb_func
 281              		.type	init_interface, %function
 282              	init_interface:
 283              	.LFB69:
 106:interface.c   ****     Init_LCD();
 284              		.loc 1 106 0
 285              		.cfi_startproc
 286              		@ args = 0, pretend = 0, frame = 0
 287              		@ frame_needed = 0, uses_anonymous_args = 0
 288 0000 08B5     		push	{r3, lr}
 289              		.cfi_def_cfa_offset 8
 290              		.cfi_offset 3, -8
 291              		.cfi_offset 14, -4
 107:interface.c   ****     //Init_ISR();
 292              		.loc 1 107 0
 293 0002 FFF7FEFF 		bl	Init_LCD
 294              	.LVL14:
 110:interface.c   ****     isr_motorSwitch_On_StartEx(ISR_motorSwitch_On_handler);
 295              		.loc 1 110 0
 296 0006 FFF7FEFF 		bl	Init_ADC
 297              	.LVL15:
 111:interface.c   ****     isr_motorSwitch_Off_StartEx(ISR_motorSwitch_Off_handler);
 298              		.loc 1 111 0
 299 000a 0348     		ldr	r0, .L28
 300 000c FFF7FEFF 		bl	isr_motorSwitch_On_StartEx
 301              	.LVL16:
 112:interface.c   **** }
 302              		.loc 1 112 0
 303 0010 0248     		ldr	r0, .L28+4
 304 0012 FFF7FEFF 		bl	isr_motorSwitch_Off_StartEx
 305              	.LVL17:
 306 0016 08BD     		pop	{r3, pc}
 307              	.L29:
 308              		.align	2
 309              	.L28:
 310 0018 00000000 		.word	ISR_motorSwitch_On_handler
 311 001c 00000000 		.word	ISR_motorSwitch_Off_handler
 312              		.cfi_endproc
 313              	.LFE69:
 314              		.size	init_interface, .-init_interface
 315              		.section	.text.Init_PWM,"ax",%progbits
 316              		.align	2
 317              		.global	Init_PWM
 318              		.thumb
 319              		.thumb_func
 320              		.type	Init_PWM, %function
 321              	Init_PWM:
 322              	.LFB72:
 129:interface.c   **** }
ARM GAS  C:\Users\degn\AppData\Local\Temp\ccFJuEuV.s 			page 9


 130:interface.c   **** 
 131:interface.c   **** void Init_PWM()
 132:interface.c   **** {
 323              		.loc 1 132 0
 324              		.cfi_startproc
 325              		@ args = 0, pretend = 0, frame = 0
 326              		@ frame_needed = 0, uses_anonymous_args = 0
 327 0000 08B5     		push	{r3, lr}
 328              		.cfi_def_cfa_offset 8
 329              		.cfi_offset 3, -8
 330              		.cfi_offset 14, -4
 133:interface.c   ****     PWM_1_Start();
 331              		.loc 1 133 0
 332 0002 FFF7FEFF 		bl	PWM_1_Start
 333              	.LVL18:
 134:interface.c   ****     PWM_2_Start();
 334              		.loc 1 134 0
 335 0006 FFF7FEFF 		bl	PWM_2_Start
 336              	.LVL19:
 337 000a 08BD     		pop	{r3, pc}
 338              		.cfi_endproc
 339              	.LFE72:
 340              		.size	Init_PWM, .-Init_PWM
 341              		.section	.text.Init_ISR,"ax",%progbits
 342              		.align	2
 343              		.global	Init_ISR
 344              		.thumb
 345              		.thumb_func
 346              		.type	Init_ISR, %function
 347              	Init_ISR:
 348              	.LFB73:
 135:interface.c   **** }
 136:interface.c   **** 
 137:interface.c   **** void Init_ISR()
 138:interface.c   **** {
 349              		.loc 1 138 0
 350              		.cfi_startproc
 351              		@ args = 0, pretend = 0, frame = 0
 352              		@ frame_needed = 0, uses_anonymous_args = 0
 353 0000 08B5     		push	{r3, lr}
 354              		.cfi_def_cfa_offset 8
 355              		.cfi_offset 3, -8
 356              		.cfi_offset 14, -4
 139:interface.c   ****     isr_toggle_StartEx(ISR_toggle_handler);
 357              		.loc 1 139 0
 358 0002 0548     		ldr	r0, .L34
 359 0004 FFF7FEFF 		bl	isr_toggle_StartEx
 360              	.LVL20:
 140:interface.c   ****     isr_print_StartEx(ISR_print_handler);
 361              		.loc 1 140 0
 362 0008 0448     		ldr	r0, .L34+4
 363 000a FFF7FEFF 		bl	isr_print_StartEx
 364              	.LVL21:
 141:interface.c   ****     isr_gradient_StartEx(ISR_gradient_handler);
 365              		.loc 1 141 0
 366 000e 0448     		ldr	r0, .L34+8
 367 0010 FFF7FEFF 		bl	isr_gradient_StartEx
ARM GAS  C:\Users\degn\AppData\Local\Temp\ccFJuEuV.s 			page 10


 368              	.LVL22:
 369 0014 08BD     		pop	{r3, pc}
 370              	.L35:
 371 0016 00BF     		.align	2
 372              	.L34:
 373 0018 00000000 		.word	ISR_toggle_handler
 374 001c 00000000 		.word	ISR_print_handler
 375 0020 00000000 		.word	ISR_gradient_handler
 376              		.cfi_endproc
 377              	.LFE73:
 378              		.size	Init_ISR, .-Init_ISR
 379              		.section	.text.writeLCD,"ax",%progbits
 380              		.align	2
 381              		.global	writeLCD
 382              		.thumb
 383              		.thumb_func
 384              		.type	writeLCD, %function
 385              	writeLCD:
 386              	.LFB74:
 142:interface.c   **** }
 143:interface.c   **** 
 144:interface.c   **** void writeLCD(char *top, int endTopChar, char *buttom, int endButtomChar)
 145:interface.c   **** {
 387              		.loc 1 145 0
 388              		.cfi_startproc
 389              		@ args = 0, pretend = 0, frame = 0
 390              		@ frame_needed = 0, uses_anonymous_args = 0
 391              	.LVL23:
 392 0000 F8B5     		push	{r3, r4, r5, r6, r7, lr}
 393              		.cfi_def_cfa_offset 24
 394              		.cfi_offset 3, -24
 395              		.cfi_offset 4, -20
 396              		.cfi_offset 5, -16
 397              		.cfi_offset 6, -12
 398              		.cfi_offset 7, -8
 399              		.cfi_offset 14, -4
 400 0002 0746     		mov	r7, r0
 401 0004 0E46     		mov	r6, r1
 402 0006 1546     		mov	r5, r2
 403 0008 1C46     		mov	r4, r3
 146:interface.c   ****     LCD_ClearDisplay();
 404              		.loc 1 146 0
 405 000a 0120     		movs	r0, #1
 406              	.LVL24:
 407 000c FFF7FEFF 		bl	LCD_WriteControl
 408              	.LVL25:
 147:interface.c   ****     LCD_Position(0, 0);
 409              		.loc 1 147 0
 410 0010 0021     		movs	r1, #0
 411 0012 0846     		mov	r0, r1
 412 0014 FFF7FEFF 		bl	LCD_Position
 413              	.LVL26:
 148:interface.c   ****     LCD_PrintString(top);
 414              		.loc 1 148 0
 415 0018 3846     		mov	r0, r7
 416 001a FFF7FEFF 		bl	LCD_PrintString
 417              	.LVL27:
ARM GAS  C:\Users\degn\AppData\Local\Temp\ccFJuEuV.s 			page 11


 149:interface.c   ****     LCD_Position(0, 15);
 418              		.loc 1 149 0
 419 001e 0F21     		movs	r1, #15
 420 0020 0020     		movs	r0, #0
 421 0022 FFF7FEFF 		bl	LCD_Position
 422              	.LVL28:
 150:interface.c   ****     LCD_PutChar(endTopChar);
 423              		.loc 1 150 0
 424 0026 F0B2     		uxtb	r0, r6
 425 0028 FFF7FEFF 		bl	LCD_PutChar
 426              	.LVL29:
 151:interface.c   ****     LCD_Position(1, 0);
 427              		.loc 1 151 0
 428 002c 0021     		movs	r1, #0
 429 002e 0120     		movs	r0, #1
 430 0030 FFF7FEFF 		bl	LCD_Position
 431              	.LVL30:
 152:interface.c   ****     LCD_PrintString(buttom);
 432              		.loc 1 152 0
 433 0034 2846     		mov	r0, r5
 434 0036 FFF7FEFF 		bl	LCD_PrintString
 435              	.LVL31:
 153:interface.c   ****     LCD_Position(1, 15);
 436              		.loc 1 153 0
 437 003a 0F21     		movs	r1, #15
 438 003c 0120     		movs	r0, #1
 439 003e FFF7FEFF 		bl	LCD_Position
 440              	.LVL32:
 154:interface.c   ****     LCD_PutChar(endButtomChar);
 441              		.loc 1 154 0
 442 0042 E0B2     		uxtb	r0, r4
 443 0044 FFF7FEFF 		bl	LCD_PutChar
 444              	.LVL33:
 445 0048 F8BD     		pop	{r3, r4, r5, r6, r7, pc}
 446              		.cfi_endproc
 447              	.LFE74:
 448              		.size	writeLCD, .-writeLCD
 449              		.global	__aeabi_f2d
 450 004a 00BF     		.section	.text.writeLCD2,"ax",%progbits
 451              		.align	2
 452              		.global	writeLCD2
 453              		.thumb
 454              		.thumb_func
 455              		.type	writeLCD2, %function
 456              	writeLCD2:
 457              	.LFB75:
 155:interface.c   **** }
 156:interface.c   **** 
 157:interface.c   **** void writeLCD2(int setpoint, float sensor)
 158:interface.c   **** {
 458              		.loc 1 158 0
 459              		.cfi_startproc
 460              		@ args = 0, pretend = 0, frame = 16
 461              		@ frame_needed = 0, uses_anonymous_args = 0
 462              	.LVL34:
 463 0000 30B5     		push	{r4, r5, lr}
 464              		.cfi_def_cfa_offset 12
ARM GAS  C:\Users\degn\AppData\Local\Temp\ccFJuEuV.s 			page 12


 465              		.cfi_offset 4, -12
 466              		.cfi_offset 5, -8
 467              		.cfi_offset 14, -4
 468 0002 85B0     		sub	sp, sp, #20
 469              		.cfi_def_cfa_offset 32
 470 0004 0546     		mov	r5, r0
 471 0006 0C46     		mov	r4, r1
 159:interface.c   ****     char buff[16];
 160:interface.c   ****     LCD_ClearDisplay();
 472              		.loc 1 160 0
 473 0008 0120     		movs	r0, #1
 474              	.LVL35:
 475 000a FFF7FEFF 		bl	LCD_WriteControl
 476              	.LVL36:
 161:interface.c   ****     sprintf(buff,"Setpoint: %i", setpoint);
 477              		.loc 1 161 0
 478 000e 2A46     		mov	r2, r5
 479 0010 0E49     		ldr	r1, .L40
 480 0012 6846     		mov	r0, sp
 481 0014 FFF7FEFF 		bl	sprintf
 482              	.LVL37:
 162:interface.c   ****     LCD_Position(0, 0);
 483              		.loc 1 162 0
 484 0018 0021     		movs	r1, #0
 485 001a 0846     		mov	r0, r1
 486 001c FFF7FEFF 		bl	LCD_Position
 487              	.LVL38:
 163:interface.c   ****     LCD_PrintString(buff);
 488              		.loc 1 163 0
 489 0020 6846     		mov	r0, sp
 490 0022 FFF7FEFF 		bl	LCD_PrintString
 491              	.LVL39:
 164:interface.c   ****     sprintf(buff,"Sensor: %.2f", sensor);
 492              		.loc 1 164 0
 493 0026 2046     		mov	r0, r4
 494 0028 FFF7FEFF 		bl	__aeabi_f2d
 495              	.LVL40:
 496 002c 0246     		mov	r2, r0
 497 002e 0B46     		mov	r3, r1
 498 0030 0749     		ldr	r1, .L40+4
 499 0032 6846     		mov	r0, sp
 500 0034 FFF7FEFF 		bl	sprintf
 501              	.LVL41:
 165:interface.c   ****     LCD_Position(1, 0);
 502              		.loc 1 165 0
 503 0038 0021     		movs	r1, #0
 504 003a 0120     		movs	r0, #1
 505 003c FFF7FEFF 		bl	LCD_Position
 506              	.LVL42:
 166:interface.c   ****     LCD_PrintString(buff);
 507              		.loc 1 166 0
 508 0040 6846     		mov	r0, sp
 509 0042 FFF7FEFF 		bl	LCD_PrintString
 510              	.LVL43:
 167:interface.c   **** }
 511              		.loc 1 167 0
 512 0046 05B0     		add	sp, sp, #20
ARM GAS  C:\Users\degn\AppData\Local\Temp\ccFJuEuV.s 			page 13


 513              		.cfi_def_cfa_offset 12
 514              		@ sp needed
 515 0048 30BD     		pop	{r4, r5, pc}
 516              	.LVL44:
 517              	.L41:
 518 004a 00BF     		.align	2
 519              	.L40:
 520 004c 20000000 		.word	.LC4
 521 0050 30000000 		.word	.LC5
 522              		.cfi_endproc
 523              	.LFE75:
 524              		.size	writeLCD2, .-writeLCD2
 525              		.global	__aeabi_i2f
 526              		.global	__aeabi_fsub
 527              		.global	__aeabi_fadd
 528              		.global	__aeabi_fdiv
 529              		.global	__aeabi_f2iz
 530              		.section	.text.FIRMovingAverage,"ax",%progbits
 531              		.align	2
 532              		.global	FIRMovingAverage
 533              		.thumb
 534              		.thumb_func
 535              		.type	FIRMovingAverage, %function
 536              	FIRMovingAverage:
 537              	.LFB76:
 168:interface.c   **** #define WINDOW_SIZE 5    // Antallet af værdier i glidende gennemsnit
 169:interface.c   **** static int values[WINDOW_SIZE] = {0};  // Array til at gemme de seneste 20 værdier
 170:interface.c   **** static int i = 0;                  // Index for den aktuelle position i arrayet
 171:interface.c   **** static float sum = 0;                  // Summen af de 20 værdier
 172:interface.c   **** static int c = 0;                  // Antal værdier, der er blevet tilføjet
 173:interface.c   **** 
 174:interface.c   **** int FIRMovingAverage(int new_value) 
 175:interface.c   **** {
 538              		.loc 1 175 0
 539              		.cfi_startproc
 540              		@ args = 0, pretend = 0, frame = 0
 541              		@ frame_needed = 0, uses_anonymous_args = 0
 542              	.LVL45:
 543 0000 2DE9F041 		push	{r4, r5, r6, r7, r8, lr}
 544              		.cfi_def_cfa_offset 24
 545              		.cfi_offset 4, -24
 546              		.cfi_offset 5, -20
 547              		.cfi_offset 6, -16
 548              		.cfi_offset 7, -12
 549              		.cfi_offset 8, -8
 550              		.cfi_offset 14, -4
 551 0004 8046     		mov	r8, r0
 176:interface.c   ****     // Opdater summen ved at trække den gamle værdi fra og tilføje den nye
 177:interface.c   ****     sum -= values[i];
 552              		.loc 1 177 0
 553 0006 194C     		ldr	r4, .L45
 554 0008 2569     		ldr	r5, [r4, #16]
 555 000a 04EB8507 		add	r7, r4, r5, lsl #2
 556 000e 7869     		ldr	r0, [r7, #20]
 557              	.LVL46:
 558 0010 FFF7FEFF 		bl	__aeabi_i2f
 559              	.LVL47:
ARM GAS  C:\Users\degn\AppData\Local\Temp\ccFJuEuV.s 			page 14


 560 0014 0146     		mov	r1, r0
 561 0016 A06A     		ldr	r0, [r4, #40]	@ float
 562 0018 FFF7FEFF 		bl	__aeabi_fsub
 563              	.LVL48:
 564 001c 0646     		mov	r6, r0
 178:interface.c   ****     sum += new_value;
 565              		.loc 1 178 0
 566 001e 4046     		mov	r0, r8
 567 0020 FFF7FEFF 		bl	__aeabi_i2f
 568              	.LVL49:
 569 0024 3146     		mov	r1, r6
 570 0026 FFF7FEFF 		bl	__aeabi_fadd
 571              	.LVL50:
 572 002a 0646     		mov	r6, r0
 573 002c A062     		str	r0, [r4, #40]	@ float
 179:interface.c   **** 
 180:interface.c   ****     // Opdater arrayet med den nye værdi
 181:interface.c   ****     values[i] = new_value;
 574              		.loc 1 181 0
 575 002e C7F81480 		str	r8, [r7, #20]
 182:interface.c   **** 
 183:interface.c   ****     // Flyt til næste position i arrayet, og wrap rundt efter WINDOW_SIZE
 184:interface.c   ****     i = (i + 1) % WINDOW_SIZE;
 576              		.loc 1 184 0
 577 0032 6A1C     		adds	r2, r5, #1
 578 0034 0E4B     		ldr	r3, .L45+4
 579 0036 83FB0231 		smull	r3, r1, r3, r2
 580 003a D317     		asrs	r3, r2, #31
 581 003c C3EB6103 		rsb	r3, r3, r1, asr #1
 582 0040 03EB8303 		add	r3, r3, r3, lsl #2
 583 0044 D31A     		subs	r3, r2, r3
 584 0046 2361     		str	r3, [r4, #16]
 185:interface.c   **** 
 186:interface.c   ****     // Tæl op til WINDOW_SIZE for at sikre korrekt gennemsnit på de første kald
 187:interface.c   ****     if (c < WINDOW_SIZE) {
 585              		.loc 1 187 0
 586 0048 E36A     		ldr	r3, [r4, #44]
 587 004a 042B     		cmp	r3, #4
 588 004c 01DC     		bgt	.L43
 188:interface.c   ****         c++;
 589              		.loc 1 188 0
 590 004e 0133     		adds	r3, r3, #1
 591 0050 E362     		str	r3, [r4, #44]
 592              	.L43:
 189:interface.c   ****     }
 190:interface.c   **** 
 191:interface.c   ****     // Returner gennemsnittet
 192:interface.c   ****     return sum / c;
 593              		.loc 1 192 0
 594 0052 064B     		ldr	r3, .L45
 595 0054 D86A     		ldr	r0, [r3, #44]
 596 0056 FFF7FEFF 		bl	__aeabi_i2f
 597              	.LVL51:
 598 005a 0146     		mov	r1, r0
 599 005c 3046     		mov	r0, r6
 600 005e FFF7FEFF 		bl	__aeabi_fdiv
 601              	.LVL52:
ARM GAS  C:\Users\degn\AppData\Local\Temp\ccFJuEuV.s 			page 15


 602 0062 FFF7FEFF 		bl	__aeabi_f2iz
 603              	.LVL53:
 193:interface.c   **** }
 604              		.loc 1 193 0
 605 0066 BDE8F081 		pop	{r4, r5, r6, r7, r8, pc}
 606              	.LVL54:
 607              	.L46:
 608 006a 00BF     		.align	2
 609              	.L45:
 610 006c 00000000 		.word	.LANCHOR0
 611 0070 67666666 		.word	1717986919
 612              		.cfi_endproc
 613              	.LFE76:
 614              		.size	FIRMovingAverage, .-FIRMovingAverage
 615              		.section	.text.mode_2,"ax",%progbits
 616              		.align	2
 617              		.global	mode_2
 618              		.thumb
 619              		.thumb_func
 620              		.type	mode_2, %function
 621              	mode_2:
 622              	.LFB79:
 194:interface.c   **** 
 195:interface.c   **** int setpoint()
 196:interface.c   **** {
 197:interface.c   ****     //return adcToDegrees( FIRMovingAverage( ADC_SAR_1_GetResult16() ) );
 198:interface.c   ****     return adcToDegrees( ADC_SAR_1_GetResult16() );
 199:interface.c   **** }
 200:interface.c   **** 
 201:interface.c   **** int mode_1()
 202:interface.c   **** {
 203:interface.c   ****     // average
 204:interface.c   ****     int loops = 10;
 205:interface.c   ****     long sum = 0;
 206:interface.c   ****     for (int i = 0; i < loops; i++)
 207:interface.c   ****     {
 208:interface.c   ****         sum = sum + ADC_SAR_1_GetResult16();
 209:interface.c   ****     }
 210:interface.c   ****     sum = sum / loops;
 211:interface.c   ****     convertedResult = adcToDegrees(sum);
 212:interface.c   ****     return convertedResult;
 213:interface.c   **** }
 214:interface.c   **** 
 215:interface.c   **** int mode_2()
 216:interface.c   **** {
 623              		.loc 1 216 0
 624              		.cfi_startproc
 625              		@ args = 0, pretend = 0, frame = 0
 626              		@ frame_needed = 0, uses_anonymous_args = 0
 627 0000 08B5     		push	{r3, lr}
 628              		.cfi_def_cfa_offset 8
 629              		.cfi_offset 3, -8
 630              		.cfi_offset 14, -4
 631              	.LVL55:
 217:interface.c   ****     int jump = 1;
 218:interface.c   ****     if (ADC_SAR_1_GetResult16() > 2200 && ADC_SAR_1_GetResult16() < 3400) // middle
 632              		.loc 1 218 0
ARM GAS  C:\Users\degn\AppData\Local\Temp\ccFJuEuV.s 			page 16


 633 0002 FFF7FEFF 		bl	ADC_SAR_1_GetResult16
 634              	.LVL56:
 635 0006 40F69803 		movw	r3, #2200
 636 000a 9842     		cmp	r0, r3
 637 000c 0ADD     		ble	.L48
 638              		.loc 1 218 0 is_stmt 0 discriminator 1
 639 000e FFF7FEFF 		bl	ADC_SAR_1_GetResult16
 640              	.LVL57:
 641 0012 40F64753 		movw	r3, #3399
 642 0016 9842     		cmp	r0, r3
 643 0018 04DC     		bgt	.L48
 219:interface.c   ****     {
 220:interface.c   ****         jump = 1;
 221:interface.c   ****         deg = deg + jump;
 644              		.loc 1 221 0 is_stmt 1
 645 001a 1F4A     		ldr	r2, .L55
 646 001c 9368     		ldr	r3, [r2, #8]
 647 001e 0133     		adds	r3, r3, #1
 648 0020 9360     		str	r3, [r2, #8]
 649 0022 24E0     		b	.L49
 650              	.L48:
 222:interface.c   ****     }
 223:interface.c   ****     else if (ADC_SAR_1_GetResult16() < 1900 && ADC_SAR_1_GetResult16() > 600) // middle
 651              		.loc 1 223 0
 652 0024 FFF7FEFF 		bl	ADC_SAR_1_GetResult16
 653              	.LVL58:
 654 0028 40F26B73 		movw	r3, #1899
 655 002c 9842     		cmp	r0, r3
 656 002e 09DC     		bgt	.L50
 657              		.loc 1 223 0 is_stmt 0 discriminator 1
 658 0030 FFF7FEFF 		bl	ADC_SAR_1_GetResult16
 659              	.LVL59:
 660 0034 B0F5167F 		cmp	r0, #600
 661 0038 04DD     		ble	.L50
 224:interface.c   ****     {
 225:interface.c   ****         jump = 1;
 226:interface.c   ****         deg = deg - jump;
 662              		.loc 1 226 0 is_stmt 1
 663 003a 174A     		ldr	r2, .L55
 664 003c 9368     		ldr	r3, [r2, #8]
 665 003e 013B     		subs	r3, r3, #1
 666 0040 9360     		str	r3, [r2, #8]
 667 0042 14E0     		b	.L49
 668              	.L50:
 227:interface.c   ****     }
 228:interface.c   ****     else if (ADC_SAR_1_GetResult16() > 3401) // edge
 669              		.loc 1 228 0
 670 0044 FFF7FEFF 		bl	ADC_SAR_1_GetResult16
 671              	.LVL60:
 672 0048 40F64953 		movw	r3, #3401
 673 004c 9842     		cmp	r0, r3
 674 004e 04DD     		ble	.L51
 675              	.LVL61:
 229:interface.c   ****     {
 230:interface.c   ****         jump = 2;
 231:interface.c   ****         deg = deg + jump;
 676              		.loc 1 231 0
ARM GAS  C:\Users\degn\AppData\Local\Temp\ccFJuEuV.s 			page 17


 677 0050 114A     		ldr	r2, .L55
 678 0052 9368     		ldr	r3, [r2, #8]
 679 0054 0233     		adds	r3, r3, #2
 680 0056 9360     		str	r3, [r2, #8]
 681 0058 09E0     		b	.L49
 682              	.LVL62:
 683              	.L51:
 232:interface.c   ****     }
 233:interface.c   ****     else if (ADC_SAR_1_GetResult16() < 599) // edge
 684              		.loc 1 233 0
 685 005a FFF7FEFF 		bl	ADC_SAR_1_GetResult16
 686              	.LVL63:
 687 005e 40F25623 		movw	r3, #598
 688 0062 9842     		cmp	r0, r3
 689 0064 03DC     		bgt	.L49
 690              	.LVL64:
 234:interface.c   ****     {
 235:interface.c   ****         jump = 2;
 236:interface.c   ****         deg = deg - jump;
 691              		.loc 1 236 0
 692 0066 0C4A     		ldr	r2, .L55
 693 0068 9368     		ldr	r3, [r2, #8]
 694 006a 023B     		subs	r3, r3, #2
 695 006c 9360     		str	r3, [r2, #8]
 696              	.LVL65:
 697              	.L49:
 237:interface.c   ****     }
 238:interface.c   ****     // boundaries
 239:interface.c   ****     if (deg < -41)
 698              		.loc 1 239 0
 699 006e 0A4B     		ldr	r3, .L55
 700 0070 9B68     		ldr	r3, [r3, #8]
 701 0072 13F1290F 		cmn	r3, #41
 702 0076 03DA     		bge	.L52
 240:interface.c   ****     {
 241:interface.c   ****         deg = -41;
 703              		.loc 1 241 0
 704 0078 6FF02802 		mvn	r2, #40
 705 007c 064B     		ldr	r3, .L55
 706 007e 9A60     		str	r2, [r3, #8]
 707              	.L52:
 242:interface.c   ****     }
 243:interface.c   ****     if (deg > 41)
 708              		.loc 1 243 0
 709 0080 054B     		ldr	r3, .L55
 710 0082 9B68     		ldr	r3, [r3, #8]
 711 0084 292B     		cmp	r3, #41
 712 0086 02DD     		ble	.L53
 244:interface.c   ****     {
 245:interface.c   ****         deg = 41;
 713              		.loc 1 245 0
 714 0088 2922     		movs	r2, #41
 715 008a 034B     		ldr	r3, .L55
 716 008c 9A60     		str	r2, [r3, #8]
 717              	.L53:
 246:interface.c   ****     }
 247:interface.c   ****     return convertedResult = deg;
ARM GAS  C:\Users\degn\AppData\Local\Temp\ccFJuEuV.s 			page 18


 718              		.loc 1 247 0
 719 008e 024B     		ldr	r3, .L55
 720 0090 B3F90800 		ldrsh	r0, [r3, #8]
 721 0094 9881     		strh	r0, [r3, #12]	@ movhi
 248:interface.c   **** }
 722              		.loc 1 248 0
 723 0096 08BD     		pop	{r3, pc}
 724              	.L56:
 725              		.align	2
 726              	.L55:
 727 0098 00000000 		.word	.LANCHOR0
 728              		.cfi_endproc
 729              	.LFE79:
 730              		.size	mode_2, .-mode_2
 731              		.section	.text.mode_3,"ax",%progbits
 732              		.align	2
 733              		.global	mode_3
 734              		.thumb
 735              		.thumb_func
 736              		.type	mode_3, %function
 737              	mode_3:
 738              	.LFB80:
 249:interface.c   **** 
 250:interface.c   **** void mode_3()
 251:interface.c   **** {
 739              		.loc 1 251 0
 740              		.cfi_startproc
 741              		@ args = 0, pretend = 0, frame = 0
 742              		@ frame_needed = 0, uses_anonymous_args = 0
 743 0000 08B5     		push	{r3, lr}
 744              		.cfi_def_cfa_offset 8
 745              		.cfi_offset 3, -8
 746              		.cfi_offset 14, -4
 252:interface.c   ****     int adc = ADC_SAR_1_GetResult16();
 747              		.loc 1 252 0
 748 0002 FFF7FEFF 		bl	ADC_SAR_1_GetResult16
 749              	.LVL66:
 253:interface.c   ****     if (adc > 2052)
 750              		.loc 1 253 0
 751 0006 40F60403 		movw	r3, #2052
 752 000a 9842     		cmp	r0, r3
 753 000c 12DD     		ble	.L58
 254:interface.c   ****     {
 255:interface.c   ****         PWM_2_WritePeriod(10000/((adc-2050)/300));
 754              		.loc 1 255 0
 755 000e A0F60200 		subw	r0, r0, #2050
 756              	.LVL67:
 757 0012 164B     		ldr	r3, .L62
 758 0014 83FB0023 		smull	r2, r3, r3, r0
 759 0018 C017     		asrs	r0, r0, #31
 760              	.LVL68:
 761 001a C0EB6310 		rsb	r0, r0, r3, asr #5
 762 001e 42F21073 		movw	r3, #10000
 763 0022 93FBF0F0 		sdiv	r0, r3, r0
 764 0026 80B2     		uxth	r0, r0
 765 0028 FFF7FEFF 		bl	PWM_2_WritePeriod
 766              	.LVL69:
ARM GAS  C:\Users\degn\AppData\Local\Temp\ccFJuEuV.s 			page 19


 256:interface.c   ****         gradientShift = 1;
 767              		.loc 1 256 0
 768 002c 0122     		movs	r2, #1
 769 002e 104B     		ldr	r3, .L62+4
 770 0030 1A60     		str	r2, [r3]
 771 0032 08BD     		pop	{r3, pc}
 772              	.LVL70:
 773              	.L58:
 257:interface.c   ****     }
 258:interface.c   ****     else if (adc < 2048)
 774              		.loc 1 258 0
 775 0034 B0F5006F 		cmp	r0, #2048
 776 0038 14DA     		bge	.L60
 259:interface.c   ****     {
 260:interface.c   ****         PWM_2_WritePeriod(10000/((2050-adc)/300));
 777              		.loc 1 260 0
 778 003a C0F50060 		rsb	r0, r0, #2048
 779              	.LVL71:
 780 003e 0230     		adds	r0, r0, #2
 781 0040 0A4B     		ldr	r3, .L62
 782 0042 83FB0023 		smull	r2, r3, r3, r0
 783 0046 C017     		asrs	r0, r0, #31
 784 0048 C0EB6310 		rsb	r0, r0, r3, asr #5
 785 004c 42F21073 		movw	r3, #10000
 786 0050 93FBF0F0 		sdiv	r0, r3, r0
 787 0054 80B2     		uxth	r0, r0
 788 0056 FFF7FEFF 		bl	PWM_2_WritePeriod
 789              	.LVL72:
 261:interface.c   ****         gradientShift = -1;
 790              		.loc 1 261 0
 791 005a 4FF0FF32 		mov	r2, #-1
 792 005e 044B     		ldr	r3, .L62+4
 793 0060 1A60     		str	r2, [r3]
 794 0062 08BD     		pop	{r3, pc}
 795              	.LVL73:
 796              	.L60:
 262:interface.c   ****     }
 263:interface.c   ****     else 
 264:interface.c   ****     {
 265:interface.c   ****         gradientShift = 0; 
 797              		.loc 1 265 0
 798 0064 0022     		movs	r2, #0
 799 0066 024B     		ldr	r3, .L62+4
 800 0068 1A60     		str	r2, [r3]
 801 006a 08BD     		pop	{r3, pc}
 802              	.L63:
 803              		.align	2
 804              	.L62:
 805 006c B5814E1B 		.word	458129845
 806 0070 00000000 		.word	.LANCHOR0
 807              		.cfi_endproc
 808              	.LFE80:
 809              		.size	mode_3, .-mode_3
 810              		.section	.text.motorSwitch,"ax",%progbits
 811              		.align	2
 812              		.global	motorSwitch
 813              		.thumb
ARM GAS  C:\Users\degn\AppData\Local\Temp\ccFJuEuV.s 			page 20


 814              		.thumb_func
 815              		.type	motorSwitch, %function
 816              	motorSwitch:
 817              	.LFB81:
 266:interface.c   ****     }
 267:interface.c   **** }
 268:interface.c   **** 
 269:interface.c   **** int motorSwitch()
 270:interface.c   **** {
 818              		.loc 1 270 0
 819              		.cfi_startproc
 820              		@ args = 0, pretend = 0, frame = 0
 821              		@ frame_needed = 0, uses_anonymous_args = 0
 822 0000 08B5     		push	{r3, lr}
 823              		.cfi_def_cfa_offset 8
 824              		.cfi_offset 3, -8
 825              		.cfi_offset 14, -4
 271:interface.c   ****     return MotorSwitchPin_Read();
 826              		.loc 1 271 0
 827 0002 FFF7FEFF 		bl	MotorSwitchPin_Read
 828              	.LVL74:
 272:interface.c   **** }
 829              		.loc 1 272 0
 830 0006 08BD     		pop	{r3, pc}
 831              		.cfi_endproc
 832              	.LFE81:
 833              		.size	motorSwitch, .-motorSwitch
 834              		.section	.text.ISR_print_handler,"ax",%progbits
 835              		.align	2
 836              		.global	ISR_print_handler
 837              		.thumb
 838              		.thumb_func
 839              		.type	ISR_print_handler, %function
 840              	ISR_print_handler:
 841              	.LFB66:
  71:interface.c   ****     if (motorSwitch())
 842              		.loc 1 71 0
 843              		.cfi_startproc
 844              		@ args = 0, pretend = 0, frame = 0
 845              		@ frame_needed = 0, uses_anonymous_args = 0
 846 0000 10B5     		push	{r4, lr}
 847              		.cfi_def_cfa_offset 8
 848              		.cfi_offset 4, -8
 849              		.cfi_offset 14, -4
  72:interface.c   ****     {
 850              		.loc 1 72 0
 851 0002 FFF7FEFF 		bl	motorSwitch
 852              	.LVL75:
 853 0006 0028     		cmp	r0, #0
 854 0008 30D0     		beq	.L66
  74:interface.c   ****         {
 855              		.loc 1 74 0
 856 000a 194B     		ldr	r3, .L71
 857 000c 1B68     		ldr	r3, [r3]
 858 000e 012B     		cmp	r3, #1
 859 0010 0ED1     		bne	.L68
  76:interface.c   ****             writeLCD("mode 1", unlock, LCDbuffer, degree);
ARM GAS  C:\Users\degn\AppData\Local\Temp\ccFJuEuV.s 			page 21


 860              		.loc 1 76 0
 861 0012 184C     		ldr	r4, .L71+4
 862 0014 184B     		ldr	r3, .L71+8
 863 0016 B3F90C20 		ldrsh	r2, [r3, #12]
 864 001a 1849     		ldr	r1, .L71+12
 865 001c 2046     		mov	r0, r4
 866 001e FFF7FEFF 		bl	sprintf
 867              	.LVL76:
  77:interface.c   ****         }
 868              		.loc 1 77 0
 869 0022 0023     		movs	r3, #0
 870 0024 2246     		mov	r2, r4
 871 0026 0321     		movs	r1, #3
 872 0028 1548     		ldr	r0, .L71+16
 873 002a FFF7FEFF 		bl	writeLCD
 874              	.LVL77:
 875 002e 10BD     		pop	{r4, pc}
 876              	.L68:
  79:interface.c   ****         {
 877              		.loc 1 79 0
 878 0030 022B     		cmp	r3, #2
 879 0032 0ED1     		bne	.L69
  81:interface.c   ****             writeLCD("mode 2", lock, LCDbuffer, degree);
 880              		.loc 1 81 0
 881 0034 0F4C     		ldr	r4, .L71+4
 882 0036 104B     		ldr	r3, .L71+8
 883 0038 B3F90C20 		ldrsh	r2, [r3, #12]
 884 003c 0F49     		ldr	r1, .L71+12
 885 003e 2046     		mov	r0, r4
 886 0040 FFF7FEFF 		bl	sprintf
 887              	.LVL78:
  82:interface.c   ****         }
 888              		.loc 1 82 0
 889 0044 0023     		movs	r3, #0
 890 0046 2246     		mov	r2, r4
 891 0048 0121     		movs	r1, #1
 892 004a 0E48     		ldr	r0, .L71+20
 893 004c FFF7FEFF 		bl	writeLCD
 894              	.LVL79:
 895 0050 10BD     		pop	{r4, pc}
 896              	.L69:
  86:interface.c   ****             writeLCD("mode 3", lock, LCDbuffer, degree);
 897              		.loc 1 86 0
 898 0052 084C     		ldr	r4, .L71+4
 899 0054 084B     		ldr	r3, .L71+8
 900 0056 5A68     		ldr	r2, [r3, #4]
 901 0058 0849     		ldr	r1, .L71+12
 902 005a 2046     		mov	r0, r4
 903 005c FFF7FEFF 		bl	sprintf
 904              	.LVL80:
  87:interface.c   ****         }  
 905              		.loc 1 87 0
 906 0060 0023     		movs	r3, #0
 907 0062 2246     		mov	r2, r4
 908 0064 0121     		movs	r1, #1
 909 0066 0848     		ldr	r0, .L71+24
 910 0068 FFF7FEFF 		bl	writeLCD
ARM GAS  C:\Users\degn\AppData\Local\Temp\ccFJuEuV.s 			page 22


 911              	.LVL81:
 912              	.L66:
 913 006c 10BD     		pop	{r4, pc}
 914              	.L72:
 915 006e 00BF     		.align	2
 916              	.L71:
 917 0070 00000000 		.word	.LANCHOR1
 918 0074 00000000 		.word	LCDbuffer
 919 0078 00000000 		.word	.LANCHOR0
 920 007c 40000000 		.word	.LC6
 921 0080 50000000 		.word	.LC7
 922 0084 58000000 		.word	.LC8
 923 0088 60000000 		.word	.LC9
 924              		.cfi_endproc
 925              	.LFE66:
 926              		.size	ISR_print_handler, .-ISR_print_handler
 927              		.section	.text.adcToDegrees,"ax",%progbits
 928              		.align	2
 929              		.global	adcToDegrees
 930              		.thumb
 931              		.thumb_func
 932              		.type	adcToDegrees, %function
 933              	adcToDegrees:
 934              	.LFB82:
 273:interface.c   **** 
 274:interface.c   **** int adcToDegrees(int adc_value)
 275:interface.c   **** {
 935              		.loc 1 275 0
 936              		.cfi_startproc
 937              		@ args = 0, pretend = 0, frame = 0
 938              		@ frame_needed = 0, uses_anonymous_args = 0
 939              		@ link register save eliminated.
 940              	.LVL82:
 276:interface.c   **** 
 277:interface.c   ****     // Check if adc_value is out of bounds
 278:interface.c   ****     if (adc_value < adc_min)
 941              		.loc 1 278 0
 942 0000 1D28     		cmp	r0, #29
 943 0002 04DD     		ble	.L75
 279:interface.c   ****     {
 280:interface.c   ****         adc_value = adc_min;
 281:interface.c   ****     }
 282:interface.c   ****     else if (adc_value > adc_max)
 944              		.loc 1 282 0
 945 0004 40F6D273 		movw	r3, #4050
 946 0008 9842     		cmp	r0, r3
 947 000a 02DC     		bgt	.L76
 948 000c 03E0     		b	.L74
 949              	.L75:
 280:interface.c   ****     }
 950              		.loc 1 280 0
 951 000e 1E20     		movs	r0, #30
 952              	.LVL83:
 953 0010 01E0     		b	.L74
 954              	.LVL84:
 955              	.L76:
 283:interface.c   ****     {
ARM GAS  C:\Users\degn\AppData\Local\Temp\ccFJuEuV.s 			page 23


 284:interface.c   ****         adc_value = adc_max;
 956              		.loc 1 284 0
 957 0012 40F6D270 		movw	r0, #4050
 958              	.LVL85:
 959              	.L74:
 285:interface.c   ****     }
 286:interface.c   **** 
 287:interface.c   ****     // Calculate degrees using linear interpolation formula
 288:interface.c   ****     int degrees = ((adc_value - adc_min) * (deg_max - deg_min)) / (adc_max - adc_min) + deg_min;
 960              		.loc 1 288 0
 961 0016 1E38     		subs	r0, r0, #30
 962              	.LVL86:
 963 0018 4623     		movs	r3, #70
 964 001a 03FB00F3 		mul	r3, r3, r0
 965 001e 0448     		ldr	r0, .L77
 966              	.LVL87:
 967 0020 80FB0320 		smull	r2, r0, r0, r3
 968 0024 DB17     		asrs	r3, r3, #31
 969 0026 C3EBA020 		rsb	r0, r3, r0, asr #10
 970              	.LVL88:
 289:interface.c   **** 
 290:interface.c   ****     return degrees;
 291:interface.c   **** }...
 971              		.loc 1 291 0
 972 002a 2338     		subs	r0, r0, #35
 973              	.LVL89:
 974 002c 7047     		bx	lr
 975              	.L78:
 976 002e 00BF     		.align	2
 977              	.L77:
 978 0030 4DBF3541 		.word	1094041421
 979              		.cfi_endproc
 980              	.LFE82:
 981              		.size	adcToDegrees, .-adcToDegrees
 982              		.section	.text.setpoint,"ax",%progbits
 983              		.align	2
 984              		.global	setpoint
 985              		.thumb
 986              		.thumb_func
 987              		.type	setpoint, %function
 988              	setpoint:
 989              	.LFB77:
 196:interface.c   **** {
 990              		.loc 1 196 0
 991              		.cfi_startproc
 992              		@ args = 0, pretend = 0, frame = 0
 993              		@ frame_needed = 0, uses_anonymous_args = 0
 994 0000 08B5     		push	{r3, lr}
 995              		.cfi_def_cfa_offset 8
 996              		.cfi_offset 3, -8
 997              		.cfi_offset 14, -4
 198:interface.c   ****     return adcToDegrees( ADC_SAR_1_GetResult16() );
 998              		.loc 1 198 0
 999 0002 FFF7FEFF 		bl	ADC_SAR_1_GetResult16
 1000              	.LVL90:
 1001 0006 FFF7FEFF 		bl	adcToDegrees
 1002              	.LVL91:
ARM GAS  C:\Users\degn\AppData\Local\Temp\ccFJuEuV.s 			page 24


 199:interface.c   **** }
 1003              		.loc 1 199 0
 1004 000a 08BD     		pop	{r3, pc}
 1005              		.cfi_endproc
 1006              	.LFE77:
 1007              		.size	setpoint, .-setpoint
 1008              		.section	.text.mode_1,"ax",%progbits
 1009              		.align	2
 1010              		.global	mode_1
 1011              		.thumb
 1012              		.thumb_func
 1013              		.type	mode_1, %function
 1014              	mode_1:
 1015              	.LFB78:
 202:interface.c   **** {
 1016              		.loc 1 202 0
 1017              		.cfi_startproc
 1018              		@ args = 0, pretend = 0, frame = 0
 1019              		@ frame_needed = 0, uses_anonymous_args = 0
 1020 0000 38B5     		push	{r3, r4, r5, lr}
 1021              		.cfi_def_cfa_offset 16
 1022              		.cfi_offset 3, -16
 1023              		.cfi_offset 4, -12
 1024              		.cfi_offset 5, -8
 1025              		.cfi_offset 14, -4
 1026              	.LVL92:
 1027              	.LBB2:
 206:interface.c   ****     for (int i = 0; i < loops; i++)
 1028              		.loc 1 206 0
 1029 0002 0024     		movs	r4, #0
 1030              	.LBE2:
 205:interface.c   ****     long sum = 0;
 1031              		.loc 1 205 0
 1032 0004 2546     		mov	r5, r4
 1033              	.LBB3:
 206:interface.c   ****     for (int i = 0; i < loops; i++)
 1034              		.loc 1 206 0
 1035 0006 03E0     		b	.L82
 1036              	.LVL93:
 1037              	.L83:
 208:interface.c   ****         sum = sum + ADC_SAR_1_GetResult16();
 1038              		.loc 1 208 0 discriminator 3
 1039 0008 FFF7FEFF 		bl	ADC_SAR_1_GetResult16
 1040              	.LVL94:
 1041 000c 0544     		add	r5, r5, r0
 1042              	.LVL95:
 206:interface.c   ****     for (int i = 0; i < loops; i++)
 1043              		.loc 1 206 0 discriminator 3
 1044 000e 0134     		adds	r4, r4, #1
 1045              	.LVL96:
 1046              	.L82:
 206:interface.c   ****     for (int i = 0; i < loops; i++)
 1047              		.loc 1 206 0 is_stmt 0 discriminator 1
 1048 0010 092C     		cmp	r4, #9
 1049 0012 F9DD     		ble	.L83
 1050              	.LBE3:
 210:interface.c   ****     sum = sum / loops;
ARM GAS  C:\Users\degn\AppData\Local\Temp\ccFJuEuV.s 			page 25


 1051              		.loc 1 210 0 is_stmt 1
 1052 0014 0548     		ldr	r0, .L85
 1053 0016 80FB0530 		smull	r3, r0, r0, r5
 1054 001a ED17     		asrs	r5, r5, #31
 1055              	.LVL97:
 211:interface.c   ****     convertedResult = adcToDegrees(sum);
 1056              		.loc 1 211 0
 1057 001c C5EBA000 		rsb	r0, r5, r0, asr #2
 1058              	.LVL98:
 1059 0020 FFF7FEFF 		bl	adcToDegrees
 1060              	.LVL99:
 1061 0024 00B2     		sxth	r0, r0
 1062 0026 024B     		ldr	r3, .L85+4
 1063 0028 9881     		strh	r0, [r3, #12]	@ movhi
 213:interface.c   **** }
 1064              		.loc 1 213 0
 1065 002a 38BD     		pop	{r3, r4, r5, pc}
 1066              	.LVL100:
 1067              	.L86:
 1068              		.align	2
 1069              	.L85:
 1070 002c 67666666 		.word	1717986919
 1071 0030 00000000 		.word	.LANCHOR0
 1072              		.cfi_endproc
 1073              	.LFE78:
 1074              		.size	mode_1, .-mode_1
 1075              		.global	gradientCount
 1076              		.global	gradientShift
 1077              		.global	pass
 1078              		.comm	tempbuffer,20,4
 1079              		.global	block
 1080              		.comm	LCDbuffer,20,4
 1081              		.global	deg
 1082              		.global	toggle
 1083              		.global	convertedResult
 1084              		.data
 1085              		.align	2
 1086              		.set	.LANCHOR1,. + 0
 1087              		.type	toggle, %object
 1088              		.size	toggle, 4
 1089              	toggle:
 1090 0000 03000000 		.word	3
 1091              		.type	pass, %object
 1092              		.size	pass, 4
 1093              	pass:
 1094 0004 01000000 		.word	1
 1095              		.section	.rodata.str1.4,"aMS",%progbits,1
 1096              		.align	2
 1097              	.LC0:
 1098 0000 4F6E00   		.ascii	"On\000"
 1099 0003 00       		.space	1
 1100              	.LC1:
 1101 0004 4F666600 		.ascii	"Off\000"
 1102              	.LC2:
 1103 0008 53746172 		.ascii	"Starting\000"
 1103      74696E67 
 1103      00
ARM GAS  C:\Users\degn\AppData\Local\Temp\ccFJuEuV.s 			page 26


 1104 0011 000000   		.space	3
 1105              	.LC3:
 1106 0014 44726F6E 		.ascii	"Dron-A Lisa\000"
 1106      2D41204C 
 1106      69736100 
 1107              	.LC4:
 1108 0020 53657470 		.ascii	"Setpoint: %i\000"
 1108      6F696E74 
 1108      3A202569 
 1108      00
 1109 002d 000000   		.space	3
 1110              	.LC5:
 1111 0030 53656E73 		.ascii	"Sensor: %.2f\000"
 1111      6F723A20 
 1111      252E3266 
 1111      00
 1112 003d 000000   		.space	3
 1113              	.LC6:
 1114 0040 25692020 		.ascii	"%i             \000"
 1114      20202020 
 1114      20202020 
 1114      20202000 
 1115              	.LC7:
 1116 0050 6D6F6465 		.ascii	"mode 1\000"
 1116      203100
 1117 0057 00       		.space	1
 1118              	.LC8:
 1119 0058 6D6F6465 		.ascii	"mode 2\000"
 1119      203200
 1120 005f 00       		.space	1
 1121              	.LC9:
 1122 0060 6D6F6465 		.ascii	"mode 3\000"
 1122      203300
 1123              		.bss
 1124              		.align	2
 1125              		.set	.LANCHOR0,. + 0
 1126              		.type	gradientShift, %object
 1127              		.size	gradientShift, 4
 1128              	gradientShift:
 1129 0000 00000000 		.space	4
 1130              		.type	gradientCount, %object
 1131              		.size	gradientCount, 4
 1132              	gradientCount:
 1133 0004 00000000 		.space	4
 1134              		.type	deg, %object
 1135              		.size	deg, 4
 1136              	deg:
 1137 0008 00000000 		.space	4
 1138              		.type	convertedResult, %object
 1139              		.size	convertedResult, 2
 1140              	convertedResult:
 1141 000c 0000     		.space	2
 1142 000e 0000     		.space	2
 1143              		.type	i, %object
 1144              		.size	i, 4
 1145              	i:
 1146 0010 00000000 		.space	4
ARM GAS  C:\Users\degn\AppData\Local\Temp\ccFJuEuV.s 			page 27


 1147              		.type	values, %object
 1148              		.size	values, 20
 1149              	values:
 1150 0014 00000000 		.space	20
 1150      00000000 
 1150      00000000 
 1150      00000000 
 1150      00000000 
 1151              		.type	sum, %object
 1152              		.size	sum, 4
 1153              	sum:
 1154 0028 00000000 		.space	4
 1155              		.type	c, %object
 1156              		.size	c, 4
 1157              	c:
 1158 002c 00000000 		.space	4
 1159              		.type	block, %object
 1160              		.size	block, 4
 1161              	block:
 1162 0030 00000000 		.space	4
 1163              		.text
 1164              	.Letext0:
 1165              		.file 2 "c:\\program files (x86)\\cypress\\psoc creator\\4.4\\psoc creator\\import\\gnu\\arm\\5.4.
 1166              		.file 3 "c:\\program files (x86)\\cypress\\psoc creator\\4.4\\psoc creator\\import\\gnu\\arm\\5.4.
 1167              		.file 4 "Generated_Source\\PSoC5/core_cm3.h"
 1168              		.file 5 "Generated_Source\\PSoC5/LCD.h"
 1169              		.file 6 "Generated_Source\\PSoC5/ADC_SAR_1.h"
 1170              		.file 7 "Generated_Source\\PSoC5/isr_motorSwitch_On.h"
 1171              		.file 8 "Generated_Source\\PSoC5/isr_motorSwitch_Off.h"
 1172              		.file 9 "Generated_Source\\PSoC5/PWM_1.h"
 1173              		.file 10 "Generated_Source\\PSoC5/PWM_2.h"
 1174              		.file 11 "Generated_Source\\PSoC5/isr_toggle.h"
 1175              		.file 12 "Generated_Source\\PSoC5/isr_print.h"
 1176              		.file 13 "Generated_Source\\PSoC5/isr_gradient.h"
 1177              		.file 14 "c:\\program files (x86)\\cypress\\psoc creator\\4.4\\psoc creator\\import\\gnu\\arm\\5.4
 1178              		.file 15 "Generated_Source\\PSoC5/MotorSwitchPin.h"
 1179              		.section	.debug_info,"",%progbits
 1180              	.Ldebug_info0:
 1181 0000 A7090000 		.4byte	0x9a7
 1182 0004 0400     		.2byte	0x4
 1183 0006 00000000 		.4byte	.Ldebug_abbrev0
 1184 000a 04       		.byte	0x4
 1185 000b 01       		.uleb128 0x1
 1186 000c 27040000 		.4byte	.LASF79
 1187 0010 0C       		.byte	0xc
 1188 0011 E3030000 		.4byte	.LASF80
 1189 0015 ED010000 		.4byte	.LASF81
 1190 0019 18000000 		.4byte	.Ldebug_ranges0+0x18
 1191 001d 00000000 		.4byte	0
 1192 0021 00000000 		.4byte	.Ldebug_line0
 1193 0025 02       		.uleb128 0x2
 1194 0026 04       		.byte	0x4
 1195 0027 04       		.byte	0x4
 1196 0028 F3000000 		.4byte	.LASF0
 1197 002c 02       		.uleb128 0x2
 1198 002d 01       		.byte	0x1
 1199 002e 06       		.byte	0x6
ARM GAS  C:\Users\degn\AppData\Local\Temp\ccFJuEuV.s 			page 28


 1200 002f BB010000 		.4byte	.LASF1
 1201 0033 02       		.uleb128 0x2
 1202 0034 01       		.byte	0x1
 1203 0035 08       		.byte	0x8
 1204 0036 9C010000 		.4byte	.LASF2
 1205 003a 03       		.uleb128 0x3
 1206 003b CF030000 		.4byte	.LASF5
 1207 003f 02       		.byte	0x2
 1208 0040 29       		.byte	0x29
 1209 0041 45000000 		.4byte	0x45
 1210 0045 02       		.uleb128 0x2
 1211 0046 02       		.byte	0x2
 1212 0047 05       		.byte	0x5
 1213 0048 44000000 		.4byte	.LASF3
 1214 004c 02       		.uleb128 0x2
 1215 004d 02       		.byte	0x2
 1216 004e 07       		.byte	0x7
 1217 004f B4020000 		.4byte	.LASF4
 1218 0053 03       		.uleb128 0x3
 1219 0054 BE030000 		.4byte	.LASF6
 1220 0058 02       		.byte	0x2
 1221 0059 3F       		.byte	0x3f
 1222 005a 5E000000 		.4byte	0x5e
 1223 005e 02       		.uleb128 0x2
 1224 005f 04       		.byte	0x4
 1225 0060 05       		.byte	0x5
 1226 0061 1B010000 		.4byte	.LASF7
 1227 0065 02       		.uleb128 0x2
 1228 0066 04       		.byte	0x4
 1229 0067 07       		.byte	0x7
 1230 0068 38030000 		.4byte	.LASF8
 1231 006c 02       		.uleb128 0x2
 1232 006d 08       		.byte	0x8
 1233 006e 05       		.byte	0x5
 1234 006f 6D000000 		.4byte	.LASF9
 1235 0073 02       		.uleb128 0x2
 1236 0074 08       		.byte	0x8
 1237 0075 07       		.byte	0x7
 1238 0076 D6010000 		.4byte	.LASF10
 1239 007a 04       		.uleb128 0x4
 1240 007b 04       		.byte	0x4
 1241 007c 05       		.byte	0x5
 1242 007d 696E7400 		.ascii	"int\000"
 1243 0081 02       		.uleb128 0x2
 1244 0082 04       		.byte	0x4
 1245 0083 07       		.byte	0x7
 1246 0084 5A020000 		.4byte	.LASF11
 1247 0088 03       		.uleb128 0x3
 1248 0089 10030000 		.4byte	.LASF12
 1249 008d 03       		.byte	0x3
 1250 008e 20       		.byte	0x20
 1251 008f 3A000000 		.4byte	0x3a
 1252 0093 03       		.uleb128 0x3
 1253 0094 E8020000 		.4byte	.LASF13
 1254 0098 03       		.byte	0x3
 1255 0099 2C       		.byte	0x2c
 1256 009a 53000000 		.4byte	0x53
ARM GAS  C:\Users\degn\AppData\Local\Temp\ccFJuEuV.s 			page 29


 1257 009e 02       		.uleb128 0x2
 1258 009f 08       		.byte	0x8
 1259 00a0 04       		.byte	0x4
 1260 00a1 5D030000 		.4byte	.LASF14
 1261 00a5 02       		.uleb128 0x2
 1262 00a6 01       		.byte	0x1
 1263 00a7 08       		.byte	0x8
 1264 00a8 CC020000 		.4byte	.LASF15
 1265 00ac 02       		.uleb128 0x2
 1266 00ad 08       		.byte	0x8
 1267 00ae 04       		.byte	0x4
 1268 00af 00000000 		.4byte	.LASF16
 1269 00b3 02       		.uleb128 0x2
 1270 00b4 04       		.byte	0x4
 1271 00b5 07       		.byte	0x7
 1272 00b6 4E000000 		.4byte	.LASF17
 1273 00ba 05       		.uleb128 0x5
 1274 00bb 04       		.byte	0x4
 1275 00bc A5000000 		.4byte	0xa5
 1276 00c0 06       		.uleb128 0x6
 1277 00c1 20040000 		.4byte	.LASF82
 1278 00c5 01       		.byte	0x1
 1279 00c6 33000000 		.4byte	0x33
 1280 00ca 01       		.byte	0x1
 1281 00cb 16       		.byte	0x16
 1282 00cc E9000000 		.4byte	0xe9
 1283 00d0 07       		.uleb128 0x7
 1284 00d1 10040000 		.4byte	.LASF18
 1285 00d5 00       		.byte	0
 1286 00d6 07       		.uleb128 0x7
 1287 00d7 F0020000 		.4byte	.LASF19
 1288 00db 01       		.byte	0x1
 1289 00dc 07       		.uleb128 0x7
 1290 00dd A4030000 		.4byte	.LASF20
 1291 00e1 02       		.byte	0x2
 1292 00e2 07       		.uleb128 0x7
 1293 00e3 C8030000 		.4byte	.LASF21
 1294 00e7 03       		.byte	0x3
 1295 00e8 00       		.byte	0
 1296 00e9 08       		.uleb128 0x8
 1297 00ea 60010000 		.4byte	.LASF22
 1298 00ee 01       		.byte	0x1
 1299 00ef 1E       		.byte	0x1e
 1300 00f0 00000000 		.4byte	.LFB64
 1301 00f4 38000000 		.4byte	.LFE64-.LFB64
 1302 00f8 01       		.uleb128 0x1
 1303 00f9 9C       		.byte	0x9c
 1304 00fa 08       		.uleb128 0x8
 1305 00fb C6040000 		.4byte	.LASF23
 1306 00ff 01       		.byte	0x1
 1307 0100 34       		.byte	0x34
 1308 0101 00000000 		.4byte	.LFB65
 1309 0105 38000000 		.4byte	.LFE65-.LFB65
 1310 0109 01       		.uleb128 0x1
 1311 010a 9C       		.byte	0x9c
 1312 010b 09       		.uleb128 0x9
 1313 010c A0000000 		.4byte	.LASF24
ARM GAS  C:\Users\degn\AppData\Local\Temp\ccFJuEuV.s 			page 30


 1314 0110 01       		.byte	0x1
 1315 0111 5C       		.byte	0x5c
 1316 0112 00000000 		.4byte	.LFB67
 1317 0116 1C000000 		.4byte	.LFE67-.LFB67
 1318 011a 01       		.uleb128 0x1
 1319 011b 9C       		.byte	0x9c
 1320 011c 5F010000 		.4byte	0x15f
 1321 0120 0A       		.uleb128 0xa
 1322 0121 08000000 		.4byte	.LVL0
 1323 0125 E4080000 		.4byte	0x8e4
 1324 0129 33010000 		.4byte	0x133
 1325 012d 0B       		.uleb128 0xb
 1326 012e 01       		.uleb128 0x1
 1327 012f 50       		.byte	0x50
 1328 0130 01       		.uleb128 0x1
 1329 0131 31       		.byte	0x31
 1330 0132 00       		.byte	0
 1331 0133 0A       		.uleb128 0xa
 1332 0134 10000000 		.4byte	.LVL1
 1333 0138 EF080000 		.4byte	0x8ef
 1334 013c 4B010000 		.4byte	0x14b
 1335 0140 0B       		.uleb128 0xb
 1336 0141 01       		.uleb128 0x1
 1337 0142 50       		.byte	0x50
 1338 0143 01       		.uleb128 0x1
 1339 0144 30       		.byte	0x30
 1340 0145 0B       		.uleb128 0xb
 1341 0146 01       		.uleb128 0x1
 1342 0147 51       		.byte	0x51
 1343 0148 01       		.uleb128 0x1
 1344 0149 30       		.byte	0x30
 1345 014a 00       		.byte	0
 1346 014b 0C       		.uleb128 0xc
 1347 014c 16000000 		.4byte	.LVL2
 1348 0150 FA080000 		.4byte	0x8fa
 1349 0154 0B       		.uleb128 0xb
 1350 0155 01       		.uleb128 0x1
 1351 0156 50       		.byte	0x50
 1352 0157 05       		.uleb128 0x5
 1353 0158 03       		.byte	0x3
 1354 0159 00000000 		.4byte	.LC0
 1355 015d 00       		.byte	0
 1356 015e 00       		.byte	0
 1357 015f 09       		.uleb128 0x9
 1358 0160 8C020000 		.4byte	.LASF25
 1359 0164 01       		.byte	0x1
 1360 0165 62       		.byte	0x62
 1361 0166 00000000 		.4byte	.LFB68
 1362 016a 1C000000 		.4byte	.LFE68-.LFB68
 1363 016e 01       		.uleb128 0x1
 1364 016f 9C       		.byte	0x9c
 1365 0170 B3010000 		.4byte	0x1b3
 1366 0174 0A       		.uleb128 0xa
 1367 0175 08000000 		.4byte	.LVL3
 1368 0179 E4080000 		.4byte	0x8e4
 1369 017d 87010000 		.4byte	0x187
 1370 0181 0B       		.uleb128 0xb
ARM GAS  C:\Users\degn\AppData\Local\Temp\ccFJuEuV.s 			page 31


 1371 0182 01       		.uleb128 0x1
 1372 0183 50       		.byte	0x50
 1373 0184 01       		.uleb128 0x1
 1374 0185 31       		.byte	0x31
 1375 0186 00       		.byte	0
 1376 0187 0A       		.uleb128 0xa
 1377 0188 10000000 		.4byte	.LVL4
 1378 018c EF080000 		.4byte	0x8ef
 1379 0190 9F010000 		.4byte	0x19f
 1380 0194 0B       		.uleb128 0xb
 1381 0195 01       		.uleb128 0x1
 1382 0196 50       		.byte	0x50
 1383 0197 01       		.uleb128 0x1
 1384 0198 30       		.byte	0x30
 1385 0199 0B       		.uleb128 0xb
 1386 019a 01       		.uleb128 0x1
 1387 019b 51       		.byte	0x51
 1388 019c 01       		.uleb128 0x1
 1389 019d 30       		.byte	0x30
 1390 019e 00       		.byte	0
 1391 019f 0C       		.uleb128 0xc
 1392 01a0 16000000 		.4byte	.LVL5
 1393 01a4 FA080000 		.4byte	0x8fa
 1394 01a8 0B       		.uleb128 0xb
 1395 01a9 01       		.uleb128 0x1
 1396 01aa 50       		.byte	0x50
 1397 01ab 05       		.uleb128 0x5
 1398 01ac 03       		.byte	0x3
 1399 01ad 04000000 		.4byte	.LC1
 1400 01b1 00       		.byte	0
 1401 01b2 00       		.byte	0
 1402 01b3 0D       		.uleb128 0xd
 1403 01b4 FC030000 		.4byte	.LASF26
 1404 01b8 01       		.byte	0x1
 1405 01b9 73       		.byte	0x73
 1406 01ba 00000000 		.4byte	.LFB70
 1407 01be 34000000 		.4byte	.LFE70-.LFB70
 1408 01c2 01       		.uleb128 0x1
 1409 01c3 9C       		.byte	0x9c
 1410 01c4 3F020000 		.4byte	0x23f
 1411 01c8 0A       		.uleb128 0xa
 1412 01c9 08000000 		.4byte	.LVL6
 1413 01cd E4080000 		.4byte	0x8e4
 1414 01d1 DB010000 		.4byte	0x1db
 1415 01d5 0B       		.uleb128 0xb
 1416 01d6 01       		.uleb128 0x1
 1417 01d7 50       		.byte	0x50
 1418 01d8 01       		.uleb128 0x1
 1419 01d9 31       		.byte	0x31
 1420 01da 00       		.byte	0
 1421 01db 0E       		.uleb128 0xe
 1422 01dc 0C000000 		.4byte	.LVL7
 1423 01e0 05090000 		.4byte	0x905
 1424 01e4 0A       		.uleb128 0xa
 1425 01e5 14000000 		.4byte	.LVL8
 1426 01e9 EF080000 		.4byte	0x8ef
 1427 01ed FC010000 		.4byte	0x1fc
ARM GAS  C:\Users\degn\AppData\Local\Temp\ccFJuEuV.s 			page 32


 1428 01f1 0B       		.uleb128 0xb
 1429 01f2 01       		.uleb128 0x1
 1430 01f3 50       		.byte	0x50
 1431 01f4 01       		.uleb128 0x1
 1432 01f5 30       		.byte	0x30
 1433 01f6 0B       		.uleb128 0xb
 1434 01f7 01       		.uleb128 0x1
 1435 01f8 51       		.byte	0x51
 1436 01f9 01       		.uleb128 0x1
 1437 01fa 30       		.byte	0x30
 1438 01fb 00       		.byte	0
 1439 01fc 0A       		.uleb128 0xa
 1440 01fd 1A000000 		.4byte	.LVL9
 1441 0201 FA080000 		.4byte	0x8fa
 1442 0205 13020000 		.4byte	0x213
 1443 0209 0B       		.uleb128 0xb
 1444 020a 01       		.uleb128 0x1
 1445 020b 50       		.byte	0x50
 1446 020c 05       		.uleb128 0x5
 1447 020d 03       		.byte	0x3
 1448 020e 08000000 		.4byte	.LC2
 1449 0212 00       		.byte	0
 1450 0213 0A       		.uleb128 0xa
 1451 0214 22000000 		.4byte	.LVL10
 1452 0218 EF080000 		.4byte	0x8ef
 1453 021c 2B020000 		.4byte	0x22b
 1454 0220 0B       		.uleb128 0xb
 1455 0221 01       		.uleb128 0x1
 1456 0222 50       		.byte	0x50
 1457 0223 01       		.uleb128 0x1
 1458 0224 31       		.byte	0x31
 1459 0225 0B       		.uleb128 0xb
 1460 0226 01       		.uleb128 0x1
 1461 0227 51       		.byte	0x51
 1462 0228 01       		.uleb128 0x1
 1463 0229 30       		.byte	0x30
 1464 022a 00       		.byte	0
 1465 022b 0C       		.uleb128 0xc
 1466 022c 28000000 		.4byte	.LVL11
 1467 0230 FA080000 		.4byte	0x8fa
 1468 0234 0B       		.uleb128 0xb
 1469 0235 01       		.uleb128 0x1
 1470 0236 50       		.byte	0x50
 1471 0237 05       		.uleb128 0x5
 1472 0238 03       		.byte	0x3
 1473 0239 14000000 		.4byte	.LC3
 1474 023d 00       		.byte	0
 1475 023e 00       		.byte	0
 1476 023f 0D       		.uleb128 0xd
 1477 0240 38010000 		.4byte	.LASF27
 1478 0244 01       		.byte	0x1
 1479 0245 7D       		.byte	0x7d
 1480 0246 00000000 		.4byte	.LFB71
 1481 024a 0C000000 		.4byte	.LFE71-.LFB71
 1482 024e 01       		.uleb128 0x1
 1483 024f 9C       		.byte	0x9c
 1484 0250 67020000 		.4byte	0x267
ARM GAS  C:\Users\degn\AppData\Local\Temp\ccFJuEuV.s 			page 33


 1485 0254 0E       		.uleb128 0xe
 1486 0255 06000000 		.4byte	.LVL12
 1487 0259 10090000 		.4byte	0x910
 1488 025d 0E       		.uleb128 0xe
 1489 025e 0A000000 		.4byte	.LVL13
 1490 0262 1B090000 		.4byte	0x91b
 1491 0266 00       		.byte	0
 1492 0267 0D       		.uleb128 0xd
 1493 0268 C7010000 		.4byte	.LASF28
 1494 026c 01       		.byte	0x1
 1495 026d 69       		.byte	0x69
 1496 026e 00000000 		.4byte	.LFB69
 1497 0272 20000000 		.4byte	.LFE69-.LFB69
 1498 0276 01       		.uleb128 0x1
 1499 0277 9C       		.byte	0x9c
 1500 0278 B9020000 		.4byte	0x2b9
 1501 027c 0E       		.uleb128 0xe
 1502 027d 06000000 		.4byte	.LVL14
 1503 0281 B3010000 		.4byte	0x1b3
 1504 0285 0E       		.uleb128 0xe
 1505 0286 0A000000 		.4byte	.LVL15
 1506 028a 3F020000 		.4byte	0x23f
 1507 028e 0A       		.uleb128 0xa
 1508 028f 10000000 		.4byte	.LVL16
 1509 0293 26090000 		.4byte	0x926
 1510 0297 A5020000 		.4byte	0x2a5
 1511 029b 0B       		.uleb128 0xb
 1512 029c 01       		.uleb128 0x1
 1513 029d 50       		.byte	0x50
 1514 029e 05       		.uleb128 0x5
 1515 029f 03       		.byte	0x3
 1516 02a0 00000000 		.4byte	ISR_motorSwitch_On_handler
 1517 02a4 00       		.byte	0
 1518 02a5 0C       		.uleb128 0xc
 1519 02a6 16000000 		.4byte	.LVL17
 1520 02aa 31090000 		.4byte	0x931
 1521 02ae 0B       		.uleb128 0xb
 1522 02af 01       		.uleb128 0x1
 1523 02b0 50       		.byte	0x50
 1524 02b1 05       		.uleb128 0x5
 1525 02b2 03       		.byte	0x3
 1526 02b3 00000000 		.4byte	ISR_motorSwitch_Off_handler
 1527 02b7 00       		.byte	0
 1528 02b8 00       		.byte	0
 1529 02b9 0D       		.uleb128 0xd
 1530 02ba 7F030000 		.4byte	.LASF29
 1531 02be 01       		.byte	0x1
 1532 02bf 83       		.byte	0x83
 1533 02c0 00000000 		.4byte	.LFB72
 1534 02c4 0C000000 		.4byte	.LFE72-.LFB72
 1535 02c8 01       		.uleb128 0x1
 1536 02c9 9C       		.byte	0x9c
 1537 02ca E1020000 		.4byte	0x2e1
 1538 02ce 0E       		.uleb128 0xe
 1539 02cf 06000000 		.4byte	.LVL18
 1540 02d3 3C090000 		.4byte	0x93c
 1541 02d7 0E       		.uleb128 0xe
ARM GAS  C:\Users\degn\AppData\Local\Temp\ccFJuEuV.s 			page 34


 1542 02d8 0A000000 		.4byte	.LVL19
 1543 02dc 47090000 		.4byte	0x947
 1544 02e0 00       		.byte	0
 1545 02e1 0D       		.uleb128 0xd
 1546 02e2 B2010000 		.4byte	.LASF30
 1547 02e6 01       		.byte	0x1
 1548 02e7 89       		.byte	0x89
 1549 02e8 00000000 		.4byte	.LFB73
 1550 02ec 24000000 		.4byte	.LFE73-.LFB73
 1551 02f0 01       		.uleb128 0x1
 1552 02f1 9C       		.byte	0x9c
 1553 02f2 38030000 		.4byte	0x338
 1554 02f6 0A       		.uleb128 0xa
 1555 02f7 08000000 		.4byte	.LVL20
 1556 02fb 52090000 		.4byte	0x952
 1557 02ff 0D030000 		.4byte	0x30d
 1558 0303 0B       		.uleb128 0xb
 1559 0304 01       		.uleb128 0x1
 1560 0305 50       		.byte	0x50
 1561 0306 05       		.uleb128 0x5
 1562 0307 03       		.byte	0x3
 1563 0308 00000000 		.4byte	ISR_toggle_handler
 1564 030c 00       		.byte	0
 1565 030d 0A       		.uleb128 0xa
 1566 030e 0E000000 		.4byte	.LVL21
 1567 0312 5D090000 		.4byte	0x95d
 1568 0316 24030000 		.4byte	0x324
 1569 031a 0B       		.uleb128 0xb
 1570 031b 01       		.uleb128 0x1
 1571 031c 50       		.byte	0x50
 1572 031d 05       		.uleb128 0x5
 1573 031e 03       		.byte	0x3
 1574 031f 00000000 		.4byte	ISR_print_handler
 1575 0323 00       		.byte	0
 1576 0324 0C       		.uleb128 0xc
 1577 0325 14000000 		.4byte	.LVL22
 1578 0329 68090000 		.4byte	0x968
 1579 032d 0B       		.uleb128 0xb
 1580 032e 01       		.uleb128 0x1
 1581 032f 50       		.byte	0x50
 1582 0330 05       		.uleb128 0x5
 1583 0331 03       		.byte	0x3
 1584 0332 00000000 		.4byte	ISR_gradient_handler
 1585 0336 00       		.byte	0
 1586 0337 00       		.byte	0
 1587 0338 09       		.uleb128 0x9
 1588 0339 41010000 		.4byte	.LASF31
 1589 033d 01       		.byte	0x1
 1590 033e 90       		.byte	0x90
 1591 033f 00000000 		.4byte	.LFB74
 1592 0343 4A000000 		.4byte	.LFE74-.LFB74
 1593 0347 01       		.uleb128 0x1
 1594 0348 9C       		.byte	0x9c
 1595 0349 49040000 		.4byte	0x449
 1596 034d 0F       		.uleb128 0xf
 1597 034e 746F7000 		.ascii	"top\000"
 1598 0352 01       		.byte	0x1
ARM GAS  C:\Users\degn\AppData\Local\Temp\ccFJuEuV.s 			page 35


 1599 0353 90       		.byte	0x90
 1600 0354 BA000000 		.4byte	0xba
 1601 0358 00000000 		.4byte	.LLST0
 1602 035c 10       		.uleb128 0x10
 1603 035d 05040000 		.4byte	.LASF32
 1604 0361 01       		.byte	0x1
 1605 0362 90       		.byte	0x90
 1606 0363 7A000000 		.4byte	0x7a
 1607 0367 1E000000 		.4byte	.LLST1
 1608 036b 10       		.uleb128 0x10
 1609 036c 24010000 		.4byte	.LASF33
 1610 0370 01       		.byte	0x1
 1611 0371 90       		.byte	0x90
 1612 0372 BA000000 		.4byte	0xba
 1613 0376 3C000000 		.4byte	.LLST2
 1614 037a 10       		.uleb128 0x10
 1615 037b 0D010000 		.4byte	.LASF34
 1616 037f 01       		.byte	0x1
 1617 0380 90       		.byte	0x90
 1618 0381 7A000000 		.4byte	0x7a
 1619 0385 5A000000 		.4byte	.LLST3
 1620 0389 0A       		.uleb128 0xa
 1621 038a 10000000 		.4byte	.LVL25
 1622 038e E4080000 		.4byte	0x8e4
 1623 0392 9C030000 		.4byte	0x39c
 1624 0396 0B       		.uleb128 0xb
 1625 0397 01       		.uleb128 0x1
 1626 0398 50       		.byte	0x50
 1627 0399 01       		.uleb128 0x1
 1628 039a 31       		.byte	0x31
 1629 039b 00       		.byte	0
 1630 039c 0A       		.uleb128 0xa
 1631 039d 18000000 		.4byte	.LVL26
 1632 03a1 EF080000 		.4byte	0x8ef
 1633 03a5 B4030000 		.4byte	0x3b4
 1634 03a9 0B       		.uleb128 0xb
 1635 03aa 01       		.uleb128 0x1
 1636 03ab 50       		.byte	0x50
 1637 03ac 01       		.uleb128 0x1
 1638 03ad 30       		.byte	0x30
 1639 03ae 0B       		.uleb128 0xb
 1640 03af 01       		.uleb128 0x1
 1641 03b0 51       		.byte	0x51
 1642 03b1 01       		.uleb128 0x1
 1643 03b2 30       		.byte	0x30
 1644 03b3 00       		.byte	0
 1645 03b4 0A       		.uleb128 0xa
 1646 03b5 1E000000 		.4byte	.LVL27
 1647 03b9 FA080000 		.4byte	0x8fa
 1648 03bd C8030000 		.4byte	0x3c8
 1649 03c1 0B       		.uleb128 0xb
 1650 03c2 01       		.uleb128 0x1
 1651 03c3 50       		.byte	0x50
 1652 03c4 02       		.uleb128 0x2
 1653 03c5 77       		.byte	0x77
 1654 03c6 00       		.sleb128 0
 1655 03c7 00       		.byte	0
ARM GAS  C:\Users\degn\AppData\Local\Temp\ccFJuEuV.s 			page 36


 1656 03c8 0A       		.uleb128 0xa
 1657 03c9 26000000 		.4byte	.LVL28
 1658 03cd EF080000 		.4byte	0x8ef
 1659 03d1 E0030000 		.4byte	0x3e0
 1660 03d5 0B       		.uleb128 0xb
 1661 03d6 01       		.uleb128 0x1
 1662 03d7 50       		.byte	0x50
 1663 03d8 01       		.uleb128 0x1
 1664 03d9 30       		.byte	0x30
 1665 03da 0B       		.uleb128 0xb
 1666 03db 01       		.uleb128 0x1
 1667 03dc 51       		.byte	0x51
 1668 03dd 01       		.uleb128 0x1
 1669 03de 3F       		.byte	0x3f
 1670 03df 00       		.byte	0
 1671 03e0 0A       		.uleb128 0xa
 1672 03e1 2C000000 		.4byte	.LVL29
 1673 03e5 73090000 		.4byte	0x973
 1674 03e9 F4030000 		.4byte	0x3f4
 1675 03ed 0B       		.uleb128 0xb
 1676 03ee 01       		.uleb128 0x1
 1677 03ef 50       		.byte	0x50
 1678 03f0 02       		.uleb128 0x2
 1679 03f1 76       		.byte	0x76
 1680 03f2 00       		.sleb128 0
 1681 03f3 00       		.byte	0
 1682 03f4 0A       		.uleb128 0xa
 1683 03f5 34000000 		.4byte	.LVL30
 1684 03f9 EF080000 		.4byte	0x8ef
 1685 03fd 0C040000 		.4byte	0x40c
 1686 0401 0B       		.uleb128 0xb
 1687 0402 01       		.uleb128 0x1
 1688 0403 50       		.byte	0x50
 1689 0404 01       		.uleb128 0x1
 1690 0405 31       		.byte	0x31
 1691 0406 0B       		.uleb128 0xb
 1692 0407 01       		.uleb128 0x1
 1693 0408 51       		.byte	0x51
 1694 0409 01       		.uleb128 0x1
 1695 040a 30       		.byte	0x30
 1696 040b 00       		.byte	0
 1697 040c 0A       		.uleb128 0xa
 1698 040d 3A000000 		.4byte	.LVL31
 1699 0411 FA080000 		.4byte	0x8fa
 1700 0415 20040000 		.4byte	0x420
 1701 0419 0B       		.uleb128 0xb
 1702 041a 01       		.uleb128 0x1
 1703 041b 50       		.byte	0x50
 1704 041c 02       		.uleb128 0x2
 1705 041d 75       		.byte	0x75
 1706 041e 00       		.sleb128 0
 1707 041f 00       		.byte	0
 1708 0420 0A       		.uleb128 0xa
 1709 0421 42000000 		.4byte	.LVL32
 1710 0425 EF080000 		.4byte	0x8ef
 1711 0429 38040000 		.4byte	0x438
 1712 042d 0B       		.uleb128 0xb
ARM GAS  C:\Users\degn\AppData\Local\Temp\ccFJuEuV.s 			page 37


 1713 042e 01       		.uleb128 0x1
 1714 042f 50       		.byte	0x50
 1715 0430 01       		.uleb128 0x1
 1716 0431 31       		.byte	0x31
 1717 0432 0B       		.uleb128 0xb
 1718 0433 01       		.uleb128 0x1
 1719 0434 51       		.byte	0x51
 1720 0435 01       		.uleb128 0x1
 1721 0436 3F       		.byte	0x3f
 1722 0437 00       		.byte	0
 1723 0438 0C       		.uleb128 0xc
 1724 0439 48000000 		.4byte	.LVL33
 1725 043d 73090000 		.4byte	0x973
 1726 0441 0B       		.uleb128 0xb
 1727 0442 01       		.uleb128 0x1
 1728 0443 50       		.byte	0x50
 1729 0444 02       		.uleb128 0x2
 1730 0445 74       		.byte	0x74
 1731 0446 00       		.sleb128 0
 1732 0447 00       		.byte	0
 1733 0448 00       		.byte	0
 1734 0449 11       		.uleb128 0x11
 1735 044a BC040000 		.4byte	.LASF35
 1736 044e 01       		.byte	0x1
 1737 044f 9D       		.byte	0x9d
 1738 0450 00000000 		.4byte	.LFB75
 1739 0454 54000000 		.4byte	.LFE75-.LFB75
 1740 0458 01       		.uleb128 0x1
 1741 0459 9C       		.byte	0x9c
 1742 045a 32050000 		.4byte	0x532
 1743 045e 10       		.uleb128 0x10
 1744 045f 17040000 		.4byte	.LASF36
 1745 0463 01       		.byte	0x1
 1746 0464 9D       		.byte	0x9d
 1747 0465 7A000000 		.4byte	0x7a
 1748 0469 78000000 		.4byte	.LLST4
 1749 046d 10       		.uleb128 0x10
 1750 046e C1000000 		.4byte	.LASF37
 1751 0472 01       		.byte	0x1
 1752 0473 9D       		.byte	0x9d
 1753 0474 25000000 		.4byte	0x25
 1754 0478 A4000000 		.4byte	.LLST5
 1755 047c 12       		.uleb128 0x12
 1756 047d 87000000 		.4byte	.LASF40
 1757 0481 01       		.byte	0x1
 1758 0482 9F       		.byte	0x9f
 1759 0483 32050000 		.4byte	0x532
 1760 0487 02       		.uleb128 0x2
 1761 0488 91       		.byte	0x91
 1762 0489 60       		.sleb128 -32
 1763 048a 0A       		.uleb128 0xa
 1764 048b 0E000000 		.4byte	.LVL36
 1765 048f E4080000 		.4byte	0x8e4
 1766 0493 9D040000 		.4byte	0x49d
 1767 0497 0B       		.uleb128 0xb
 1768 0498 01       		.uleb128 0x1
 1769 0499 50       		.byte	0x50
ARM GAS  C:\Users\degn\AppData\Local\Temp\ccFJuEuV.s 			page 38


 1770 049a 01       		.uleb128 0x1
 1771 049b 31       		.byte	0x31
 1772 049c 00       		.byte	0
 1773 049d 0A       		.uleb128 0xa
 1774 049e 18000000 		.4byte	.LVL37
 1775 04a2 7E090000 		.4byte	0x97e
 1776 04a6 C0040000 		.4byte	0x4c0
 1777 04aa 0B       		.uleb128 0xb
 1778 04ab 01       		.uleb128 0x1
 1779 04ac 50       		.byte	0x50
 1780 04ad 02       		.uleb128 0x2
 1781 04ae 7D       		.byte	0x7d
 1782 04af 00       		.sleb128 0
 1783 04b0 0B       		.uleb128 0xb
 1784 04b1 01       		.uleb128 0x1
 1785 04b2 51       		.byte	0x51
 1786 04b3 05       		.uleb128 0x5
 1787 04b4 03       		.byte	0x3
 1788 04b5 20000000 		.4byte	.LC4
 1789 04b9 0B       		.uleb128 0xb
 1790 04ba 01       		.uleb128 0x1
 1791 04bb 52       		.byte	0x52
 1792 04bc 02       		.uleb128 0x2
 1793 04bd 75       		.byte	0x75
 1794 04be 00       		.sleb128 0
 1795 04bf 00       		.byte	0
 1796 04c0 0A       		.uleb128 0xa
 1797 04c1 20000000 		.4byte	.LVL38
 1798 04c5 EF080000 		.4byte	0x8ef
 1799 04c9 D8040000 		.4byte	0x4d8
 1800 04cd 0B       		.uleb128 0xb
 1801 04ce 01       		.uleb128 0x1
 1802 04cf 50       		.byte	0x50
 1803 04d0 01       		.uleb128 0x1
 1804 04d1 30       		.byte	0x30
 1805 04d2 0B       		.uleb128 0xb
 1806 04d3 01       		.uleb128 0x1
 1807 04d4 51       		.byte	0x51
 1808 04d5 01       		.uleb128 0x1
 1809 04d6 30       		.byte	0x30
 1810 04d7 00       		.byte	0
 1811 04d8 0A       		.uleb128 0xa
 1812 04d9 26000000 		.4byte	.LVL39
 1813 04dd FA080000 		.4byte	0x8fa
 1814 04e1 EC040000 		.4byte	0x4ec
 1815 04e5 0B       		.uleb128 0xb
 1816 04e6 01       		.uleb128 0x1
 1817 04e7 50       		.byte	0x50
 1818 04e8 02       		.uleb128 0x2
 1819 04e9 7D       		.byte	0x7d
 1820 04ea 00       		.sleb128 0
 1821 04eb 00       		.byte	0
 1822 04ec 0A       		.uleb128 0xa
 1823 04ed 38000000 		.4byte	.LVL41
 1824 04f1 7E090000 		.4byte	0x97e
 1825 04f5 09050000 		.4byte	0x509
 1826 04f9 0B       		.uleb128 0xb
ARM GAS  C:\Users\degn\AppData\Local\Temp\ccFJuEuV.s 			page 39


 1827 04fa 01       		.uleb128 0x1
 1828 04fb 50       		.byte	0x50
 1829 04fc 02       		.uleb128 0x2
 1830 04fd 7D       		.byte	0x7d
 1831 04fe 00       		.sleb128 0
 1832 04ff 0B       		.uleb128 0xb
 1833 0500 01       		.uleb128 0x1
 1834 0501 51       		.byte	0x51
 1835 0502 05       		.uleb128 0x5
 1836 0503 03       		.byte	0x3
 1837 0504 30000000 		.4byte	.LC5
 1838 0508 00       		.byte	0
 1839 0509 0A       		.uleb128 0xa
 1840 050a 40000000 		.4byte	.LVL42
 1841 050e EF080000 		.4byte	0x8ef
 1842 0512 21050000 		.4byte	0x521
 1843 0516 0B       		.uleb128 0xb
 1844 0517 01       		.uleb128 0x1
 1845 0518 50       		.byte	0x50
 1846 0519 01       		.uleb128 0x1
 1847 051a 31       		.byte	0x31
 1848 051b 0B       		.uleb128 0xb
 1849 051c 01       		.uleb128 0x1
 1850 051d 51       		.byte	0x51
 1851 051e 01       		.uleb128 0x1
 1852 051f 30       		.byte	0x30
 1853 0520 00       		.byte	0
 1854 0521 0C       		.uleb128 0xc
 1855 0522 46000000 		.4byte	.LVL43
 1856 0526 FA080000 		.4byte	0x8fa
 1857 052a 0B       		.uleb128 0xb
 1858 052b 01       		.uleb128 0x1
 1859 052c 50       		.byte	0x50
 1860 052d 02       		.uleb128 0x2
 1861 052e 7D       		.byte	0x7d
 1862 052f 00       		.sleb128 0
 1863 0530 00       		.byte	0
 1864 0531 00       		.byte	0
 1865 0532 13       		.uleb128 0x13
 1866 0533 A5000000 		.4byte	0xa5
 1867 0537 42050000 		.4byte	0x542
 1868 053b 14       		.uleb128 0x14
 1869 053c B3000000 		.4byte	0xb3
 1870 0540 0F       		.byte	0xf
 1871 0541 00       		.byte	0
 1872 0542 15       		.uleb128 0x15
 1873 0543 57000000 		.4byte	.LASF45
 1874 0547 01       		.byte	0x1
 1875 0548 AE       		.byte	0xae
 1876 0549 7A000000 		.4byte	0x7a
 1877 054d 00000000 		.4byte	.LFB76
 1878 0551 74000000 		.4byte	.LFE76-.LFB76
 1879 0555 01       		.uleb128 0x1
 1880 0556 9C       		.byte	0x9c
 1881 0557 6B050000 		.4byte	0x56b
 1882 055b 10       		.uleb128 0x10
 1883 055c D9030000 		.4byte	.LASF38
ARM GAS  C:\Users\degn\AppData\Local\Temp\ccFJuEuV.s 			page 40


 1884 0560 01       		.byte	0x1
 1885 0561 AE       		.byte	0xae
 1886 0562 7A000000 		.4byte	0x7a
 1887 0566 D2000000 		.4byte	.LLST6
 1888 056a 00       		.byte	0
 1889 056b 16       		.uleb128 0x16
 1890 056c E5000000 		.4byte	.LASF39
 1891 0570 01       		.byte	0x1
 1892 0571 D7       		.byte	0xd7
 1893 0572 7A000000 		.4byte	0x7a
 1894 0576 00000000 		.4byte	.LFB79
 1895 057a 9C000000 		.4byte	.LFE79-.LFB79
 1896 057e 01       		.uleb128 0x1
 1897 057f 9C       		.byte	0x9c
 1898 0580 CA050000 		.4byte	0x5ca
 1899 0584 17       		.uleb128 0x17
 1900 0585 68000000 		.4byte	.LASF41
 1901 0589 01       		.byte	0x1
 1902 058a D9       		.byte	0xd9
 1903 058b 7A000000 		.4byte	0x7a
 1904 058f FE000000 		.4byte	.LLST7
 1905 0593 0E       		.uleb128 0xe
 1906 0594 06000000 		.4byte	.LVL56
 1907 0598 89090000 		.4byte	0x989
 1908 059c 0E       		.uleb128 0xe
 1909 059d 12000000 		.4byte	.LVL57
 1910 05a1 89090000 		.4byte	0x989
 1911 05a5 0E       		.uleb128 0xe
 1912 05a6 28000000 		.4byte	.LVL58
 1913 05aa 89090000 		.4byte	0x989
 1914 05ae 0E       		.uleb128 0xe
 1915 05af 34000000 		.4byte	.LVL59
 1916 05b3 89090000 		.4byte	0x989
 1917 05b7 0E       		.uleb128 0xe
 1918 05b8 48000000 		.4byte	.LVL60
 1919 05bc 89090000 		.4byte	0x989
 1920 05c0 0E       		.uleb128 0xe
 1921 05c1 5E000000 		.4byte	.LVL63
 1922 05c5 89090000 		.4byte	0x989
 1923 05c9 00       		.byte	0
 1924 05ca 0D       		.uleb128 0xd
 1925 05cb EC000000 		.4byte	.LASF42
 1926 05cf 01       		.byte	0x1
 1927 05d0 FA       		.byte	0xfa
 1928 05d1 00000000 		.4byte	.LFB80
 1929 05d5 74000000 		.4byte	.LFE80-.LFB80
 1930 05d9 01       		.uleb128 0x1
 1931 05da 9C       		.byte	0x9c
 1932 05db 0A060000 		.4byte	0x60a
 1933 05df 18       		.uleb128 0x18
 1934 05e0 61646300 		.ascii	"adc\000"
 1935 05e4 01       		.byte	0x1
 1936 05e5 FC       		.byte	0xfc
 1937 05e6 7A000000 		.4byte	0x7a
 1938 05ea 36010000 		.4byte	.LLST8
 1939 05ee 0E       		.uleb128 0xe
 1940 05ef 06000000 		.4byte	.LVL66
ARM GAS  C:\Users\degn\AppData\Local\Temp\ccFJuEuV.s 			page 41


 1941 05f3 89090000 		.4byte	0x989
 1942 05f7 0E       		.uleb128 0xe
 1943 05f8 2C000000 		.4byte	.LVL69
 1944 05fc 94090000 		.4byte	0x994
 1945 0600 0E       		.uleb128 0xe
 1946 0601 5A000000 		.4byte	.LVL72
 1947 0605 94090000 		.4byte	0x994
 1948 0609 00       		.byte	0
 1949 060a 19       		.uleb128 0x19
 1950 060b 7B000000 		.4byte	.LASF43
 1951 060f 01       		.byte	0x1
 1952 0610 0D01     		.2byte	0x10d
 1953 0612 7A000000 		.4byte	0x7a
 1954 0616 00000000 		.4byte	.LFB81
 1955 061a 08000000 		.4byte	.LFE81-.LFB81
 1956 061e 01       		.uleb128 0x1
 1957 061f 9C       		.byte	0x9c
 1958 0620 2E060000 		.4byte	0x62e
 1959 0624 0E       		.uleb128 0xe
 1960 0625 06000000 		.4byte	.LVL74
 1961 0629 9F090000 		.4byte	0x99f
 1962 062d 00       		.byte	0
 1963 062e 09       		.uleb128 0x9
 1964 062f 8A010000 		.4byte	.LASF44
 1965 0633 01       		.byte	0x1
 1966 0634 46       		.byte	0x46
 1967 0635 00000000 		.4byte	.LFB66
 1968 0639 8C000000 		.4byte	.LFE66-.LFB66
 1969 063d 01       		.uleb128 0x1
 1970 063e 9C       		.byte	0x9c
 1971 063f 15070000 		.4byte	0x715
 1972 0643 0E       		.uleb128 0xe
 1973 0644 06000000 		.4byte	.LVL75
 1974 0648 0A060000 		.4byte	0x60a
 1975 064c 0A       		.uleb128 0xa
 1976 064d 22000000 		.4byte	.LVL76
 1977 0651 7E090000 		.4byte	0x97e
 1978 0655 69060000 		.4byte	0x669
 1979 0659 0B       		.uleb128 0xb
 1980 065a 01       		.uleb128 0x1
 1981 065b 50       		.byte	0x50
 1982 065c 02       		.uleb128 0x2
 1983 065d 74       		.byte	0x74
 1984 065e 00       		.sleb128 0
 1985 065f 0B       		.uleb128 0xb
 1986 0660 01       		.uleb128 0x1
 1987 0661 51       		.byte	0x51
 1988 0662 05       		.uleb128 0x5
 1989 0663 03       		.byte	0x3
 1990 0664 40000000 		.4byte	.LC6
 1991 0668 00       		.byte	0
 1992 0669 0A       		.uleb128 0xa
 1993 066a 2E000000 		.4byte	.LVL77
 1994 066e 38030000 		.4byte	0x338
 1995 0672 90060000 		.4byte	0x690
 1996 0676 0B       		.uleb128 0xb
 1997 0677 01       		.uleb128 0x1
ARM GAS  C:\Users\degn\AppData\Local\Temp\ccFJuEuV.s 			page 42


 1998 0678 50       		.byte	0x50
 1999 0679 05       		.uleb128 0x5
 2000 067a 03       		.byte	0x3
 2001 067b 50000000 		.4byte	.LC7
 2002 067f 0B       		.uleb128 0xb
 2003 0680 01       		.uleb128 0x1
 2004 0681 51       		.byte	0x51
 2005 0682 01       		.uleb128 0x1
 2006 0683 33       		.byte	0x33
 2007 0684 0B       		.uleb128 0xb
 2008 0685 01       		.uleb128 0x1
 2009 0686 52       		.byte	0x52
 2010 0687 02       		.uleb128 0x2
 2011 0688 74       		.byte	0x74
 2012 0689 00       		.sleb128 0
 2013 068a 0B       		.uleb128 0xb
 2014 068b 01       		.uleb128 0x1
 2015 068c 53       		.byte	0x53
 2016 068d 01       		.uleb128 0x1
 2017 068e 30       		.byte	0x30
 2018 068f 00       		.byte	0
 2019 0690 0A       		.uleb128 0xa
 2020 0691 44000000 		.4byte	.LVL78
 2021 0695 7E090000 		.4byte	0x97e
 2022 0699 AD060000 		.4byte	0x6ad
 2023 069d 0B       		.uleb128 0xb
 2024 069e 01       		.uleb128 0x1
 2025 069f 50       		.byte	0x50
 2026 06a0 02       		.uleb128 0x2
 2027 06a1 74       		.byte	0x74
 2028 06a2 00       		.sleb128 0
 2029 06a3 0B       		.uleb128 0xb
 2030 06a4 01       		.uleb128 0x1
 2031 06a5 51       		.byte	0x51
 2032 06a6 05       		.uleb128 0x5
 2033 06a7 03       		.byte	0x3
 2034 06a8 40000000 		.4byte	.LC6
 2035 06ac 00       		.byte	0
 2036 06ad 0A       		.uleb128 0xa
 2037 06ae 50000000 		.4byte	.LVL79
 2038 06b2 38030000 		.4byte	0x338
 2039 06b6 D4060000 		.4byte	0x6d4
 2040 06ba 0B       		.uleb128 0xb
 2041 06bb 01       		.uleb128 0x1
 2042 06bc 50       		.byte	0x50
 2043 06bd 05       		.uleb128 0x5
 2044 06be 03       		.byte	0x3
 2045 06bf 58000000 		.4byte	.LC8
 2046 06c3 0B       		.uleb128 0xb
 2047 06c4 01       		.uleb128 0x1
 2048 06c5 51       		.byte	0x51
 2049 06c6 01       		.uleb128 0x1
 2050 06c7 31       		.byte	0x31
 2051 06c8 0B       		.uleb128 0xb
 2052 06c9 01       		.uleb128 0x1
 2053 06ca 52       		.byte	0x52
 2054 06cb 02       		.uleb128 0x2
ARM GAS  C:\Users\degn\AppData\Local\Temp\ccFJuEuV.s 			page 43


 2055 06cc 74       		.byte	0x74
 2056 06cd 00       		.sleb128 0
 2057 06ce 0B       		.uleb128 0xb
 2058 06cf 01       		.uleb128 0x1
 2059 06d0 53       		.byte	0x53
 2060 06d1 01       		.uleb128 0x1
 2061 06d2 30       		.byte	0x30
 2062 06d3 00       		.byte	0
 2063 06d4 0A       		.uleb128 0xa
 2064 06d5 60000000 		.4byte	.LVL80
 2065 06d9 7E090000 		.4byte	0x97e
 2066 06dd F1060000 		.4byte	0x6f1
 2067 06e1 0B       		.uleb128 0xb
 2068 06e2 01       		.uleb128 0x1
 2069 06e3 50       		.byte	0x50
 2070 06e4 02       		.uleb128 0x2
 2071 06e5 74       		.byte	0x74
 2072 06e6 00       		.sleb128 0
 2073 06e7 0B       		.uleb128 0xb
 2074 06e8 01       		.uleb128 0x1
 2075 06e9 51       		.byte	0x51
 2076 06ea 05       		.uleb128 0x5
 2077 06eb 03       		.byte	0x3
 2078 06ec 40000000 		.4byte	.LC6
 2079 06f0 00       		.byte	0
 2080 06f1 0C       		.uleb128 0xc
 2081 06f2 6C000000 		.4byte	.LVL81
 2082 06f6 38030000 		.4byte	0x338
 2083 06fa 0B       		.uleb128 0xb
 2084 06fb 01       		.uleb128 0x1
 2085 06fc 50       		.byte	0x50
 2086 06fd 05       		.uleb128 0x5
 2087 06fe 03       		.byte	0x3
 2088 06ff 60000000 		.4byte	.LC9
 2089 0703 0B       		.uleb128 0xb
 2090 0704 01       		.uleb128 0x1
 2091 0705 51       		.byte	0x51
 2092 0706 01       		.uleb128 0x1
 2093 0707 31       		.byte	0x31
 2094 0708 0B       		.uleb128 0xb
 2095 0709 01       		.uleb128 0x1
 2096 070a 52       		.byte	0x52
 2097 070b 02       		.uleb128 0x2
 2098 070c 74       		.byte	0x74
 2099 070d 00       		.sleb128 0
 2100 070e 0B       		.uleb128 0xb
 2101 070f 01       		.uleb128 0x1
 2102 0710 53       		.byte	0x53
 2103 0711 01       		.uleb128 0x1
 2104 0712 30       		.byte	0x30
 2105 0713 00       		.byte	0
 2106 0714 00       		.byte	0
 2107 0715 1A       		.uleb128 0x1a
 2108 0716 7D010000 		.4byte	.LASF46
 2109 071a 01       		.byte	0x1
 2110 071b 1201     		.2byte	0x112
 2111 071d 7A000000 		.4byte	0x7a
ARM GAS  C:\Users\degn\AppData\Local\Temp\ccFJuEuV.s 			page 44


 2112 0721 00000000 		.4byte	.LFB82
 2113 0725 34000000 		.4byte	.LFE82-.LFB82
 2114 0729 01       		.uleb128 0x1
 2115 072a 9C       		.byte	0x9c
 2116 072b 50070000 		.4byte	0x750
 2117 072f 1B       		.uleb128 0x1b
 2118 0730 96000000 		.4byte	.LASF47
 2119 0734 01       		.byte	0x1
 2120 0735 1201     		.2byte	0x112
 2121 0737 7A000000 		.4byte	0x7a
 2122 073b 6D010000 		.4byte	.LLST9
 2123 073f 1C       		.uleb128 0x1c
 2124 0740 75010000 		.4byte	.LASF48
 2125 0744 01       		.byte	0x1
 2126 0745 2001     		.2byte	0x120
 2127 0747 7A000000 		.4byte	0x7a
 2128 074b A6010000 		.4byte	.LLST10
 2129 074f 00       		.byte	0
 2130 0750 16       		.uleb128 0x16
 2131 0751 17040000 		.4byte	.LASF36
 2132 0755 01       		.byte	0x1
 2133 0756 C3       		.byte	0xc3
 2134 0757 7A000000 		.4byte	0x7a
 2135 075b 00000000 		.4byte	.LFB77
 2136 075f 0C000000 		.4byte	.LFE77-.LFB77
 2137 0763 01       		.uleb128 0x1
 2138 0764 9C       		.byte	0x9c
 2139 0765 7C070000 		.4byte	0x77c
 2140 0769 0E       		.uleb128 0xe
 2141 076a 06000000 		.4byte	.LVL90
 2142 076e 89090000 		.4byte	0x989
 2143 0772 0E       		.uleb128 0xe
 2144 0773 0A000000 		.4byte	.LVL91
 2145 0777 15070000 		.4byte	0x715
 2146 077b 00       		.byte	0
 2147 077c 16       		.uleb128 0x16
 2148 077d DE000000 		.4byte	.LASF49
 2149 0781 01       		.byte	0x1
 2150 0782 C9       		.byte	0xc9
 2151 0783 7A000000 		.4byte	0x7a
 2152 0787 00000000 		.4byte	.LFB78
 2153 078b 34000000 		.4byte	.LFE78-.LFB78
 2154 078f 01       		.uleb128 0x1
 2155 0790 9C       		.byte	0x9c
 2156 0791 DA070000 		.4byte	0x7da
 2157 0795 1D       		.uleb128 0x1d
 2158 0796 BB000000 		.4byte	.LASF50
 2159 079a 01       		.byte	0x1
 2160 079b CC       		.byte	0xcc
 2161 079c 7A000000 		.4byte	0x7a
 2162 07a0 0A       		.byte	0xa
 2163 07a1 18       		.uleb128 0x18
 2164 07a2 73756D00 		.ascii	"sum\000"
 2165 07a6 01       		.byte	0x1
 2166 07a7 CD       		.byte	0xcd
 2167 07a8 5E000000 		.4byte	0x5e
 2168 07ac C6010000 		.4byte	.LLST11
ARM GAS  C:\Users\degn\AppData\Local\Temp\ccFJuEuV.s 			page 45


 2169 07b0 1E       		.uleb128 0x1e
 2170 07b1 00000000 		.4byte	.Ldebug_ranges0+0
 2171 07b5 D0070000 		.4byte	0x7d0
 2172 07b9 18       		.uleb128 0x18
 2173 07ba 6900     		.ascii	"i\000"
 2174 07bc 01       		.byte	0x1
 2175 07bd CE       		.byte	0xce
 2176 07be 7A000000 		.4byte	0x7a
 2177 07c2 02020000 		.4byte	.LLST12
 2178 07c6 0E       		.uleb128 0xe
 2179 07c7 0C000000 		.4byte	.LVL94
 2180 07cb 89090000 		.4byte	0x989
 2181 07cf 00       		.byte	0
 2182 07d0 0E       		.uleb128 0xe
 2183 07d1 24000000 		.4byte	.LVL99
 2184 07d5 15070000 		.4byte	0x715
 2185 07d9 00       		.byte	0
 2186 07da 13       		.uleb128 0x13
 2187 07db 7A000000 		.4byte	0x7a
 2188 07df EA070000 		.4byte	0x7ea
 2189 07e3 14       		.uleb128 0x14
 2190 07e4 B3000000 		.4byte	0xb3
 2191 07e8 04       		.byte	0x4
 2192 07e9 00       		.byte	0
 2193 07ea 12       		.uleb128 0x12
 2194 07eb 2B010000 		.4byte	.LASF51
 2195 07ef 01       		.byte	0x1
 2196 07f0 A9       		.byte	0xa9
 2197 07f1 DA070000 		.4byte	0x7da
 2198 07f5 05       		.uleb128 0x5
 2199 07f6 03       		.byte	0x3
 2200 07f7 14000000 		.4byte	values
 2201 07fb 1F       		.uleb128 0x1f
 2202 07fc 6900     		.ascii	"i\000"
 2203 07fe 01       		.byte	0x1
 2204 07ff AA       		.byte	0xaa
 2205 0800 7A000000 		.4byte	0x7a
 2206 0804 05       		.uleb128 0x5
 2207 0805 03       		.byte	0x3
 2208 0806 10000000 		.4byte	i
 2209 080a 1F       		.uleb128 0x1f
 2210 080b 73756D00 		.ascii	"sum\000"
 2211 080f 01       		.byte	0x1
 2212 0810 AB       		.byte	0xab
 2213 0811 25000000 		.4byte	0x25
 2214 0815 05       		.uleb128 0x5
 2215 0816 03       		.byte	0x3
 2216 0817 28000000 		.4byte	sum
 2217 081b 1F       		.uleb128 0x1f
 2218 081c 6300     		.ascii	"c\000"
 2219 081e 01       		.byte	0x1
 2220 081f AC       		.byte	0xac
 2221 0820 7A000000 		.4byte	0x7a
 2222 0824 05       		.uleb128 0x5
 2223 0825 03       		.byte	0x3
 2224 0826 2C000000 		.4byte	c
 2225 082a 20       		.uleb128 0x20
ARM GAS  C:\Users\degn\AppData\Local\Temp\ccFJuEuV.s 			page 46


 2226 082b 72030000 		.4byte	.LASF52
 2227 082f 04       		.byte	0x4
 2228 0830 1207     		.2byte	0x712
 2229 0832 36080000 		.4byte	0x836
 2230 0836 21       		.uleb128 0x21
 2231 0837 93000000 		.4byte	0x93
 2232 083b 22       		.uleb128 0x22
 2233 083c AE030000 		.4byte	.LASF53
 2234 0840 01       		.byte	0x1
 2235 0841 06       		.byte	0x6
 2236 0842 88000000 		.4byte	0x88
 2237 0846 05       		.uleb128 0x5
 2238 0847 03       		.byte	0x3
 2239 0848 00000000 		.4byte	convertedResult
 2240 084c 22       		.uleb128 0x22
 2241 084d B5040000 		.4byte	.LASF54
 2242 0851 01       		.byte	0x1
 2243 0852 07       		.byte	0x7
 2244 0853 7A000000 		.4byte	0x7a
 2245 0857 05       		.uleb128 0x5
 2246 0858 03       		.byte	0x3
 2247 0859 00000000 		.4byte	toggle
 2248 085d 23       		.uleb128 0x23
 2249 085e 64656700 		.ascii	"deg\000"
 2250 0862 01       		.byte	0x1
 2251 0863 08       		.byte	0x8
 2252 0864 7A000000 		.4byte	0x7a
 2253 0868 05       		.uleb128 0x5
 2254 0869 03       		.byte	0x3
 2255 086a 00000000 		.4byte	deg
 2256 086e 13       		.uleb128 0x13
 2257 086f A5000000 		.4byte	0xa5
 2258 0873 7E080000 		.4byte	0x87e
 2259 0877 14       		.uleb128 0x14
 2260 0878 B3000000 		.4byte	0xb3
 2261 087c 13       		.byte	0x13
 2262 087d 00       		.byte	0
 2263 087e 22       		.uleb128 0x22
 2264 087f 8C000000 		.4byte	.LASF55
 2265 0883 01       		.byte	0x1
 2266 0884 09       		.byte	0x9
 2267 0885 6E080000 		.4byte	0x86e
 2268 0889 05       		.uleb128 0x5
 2269 088a 03       		.byte	0x3
 2270 088b 00000000 		.4byte	LCDbuffer
 2271 088f 22       		.uleb128 0x22
 2272 0890 32010000 		.4byte	.LASF56
 2273 0894 01       		.byte	0x1
 2274 0895 0A       		.byte	0xa
 2275 0896 7A000000 		.4byte	0x7a
 2276 089a 05       		.uleb128 0x5
 2277 089b 03       		.byte	0x3
 2278 089c 00000000 		.4byte	block
 2279 08a0 22       		.uleb128 0x22
 2280 08a1 28000000 		.4byte	.LASF57
 2281 08a5 01       		.byte	0x1
 2282 08a6 0B       		.byte	0xb
ARM GAS  C:\Users\degn\AppData\Local\Temp\ccFJuEuV.s 			page 47


 2283 08a7 6E080000 		.4byte	0x86e
 2284 08ab 05       		.uleb128 0x5
 2285 08ac 03       		.byte	0x3
 2286 08ad 00000000 		.4byte	tempbuffer
 2287 08b1 22       		.uleb128 0x22
 2288 08b2 C7020000 		.4byte	.LASF58
 2289 08b6 01       		.byte	0x1
 2290 08b7 0C       		.byte	0xc
 2291 08b8 7A000000 		.4byte	0x7a
 2292 08bc 05       		.uleb128 0x5
 2293 08bd 03       		.byte	0x3
 2294 08be 00000000 		.4byte	pass
 2295 08c2 22       		.uleb128 0x22
 2296 08c3 64030000 		.4byte	.LASF59
 2297 08c7 01       		.byte	0x1
 2298 08c8 0D       		.byte	0xd
 2299 08c9 7A000000 		.4byte	0x7a
 2300 08cd 05       		.uleb128 0x5
 2301 08ce 03       		.byte	0x3
 2302 08cf 00000000 		.4byte	gradientShift
 2303 08d3 22       		.uleb128 0x22
 2304 08d4 18030000 		.4byte	.LASF60
 2305 08d8 01       		.byte	0x1
 2306 08d9 0E       		.byte	0xe
 2307 08da 7A000000 		.4byte	0x7a
 2308 08de 05       		.uleb128 0x5
 2309 08df 03       		.byte	0x3
 2310 08e0 00000000 		.4byte	gradientCount
 2311 08e4 24       		.uleb128 0x24
 2312 08e5 33000000 		.4byte	.LASF61
 2313 08e9 33000000 		.4byte	.LASF61
 2314 08ed 05       		.byte	0x5
 2315 08ee 3A       		.byte	0x3a
 2316 08ef 24       		.uleb128 0x24
 2317 08f0 EF030000 		.4byte	.LASF62
 2318 08f4 EF030000 		.4byte	.LASF62
 2319 08f8 05       		.byte	0x5
 2320 08f9 3D       		.byte	0x3d
 2321 08fa 24       		.uleb128 0x24
 2322 08fb 67020000 		.4byte	.LASF63
 2323 08ff 67020000 		.4byte	.LASF63
 2324 0903 05       		.byte	0x5
 2325 0904 3C       		.byte	0x3c
 2326 0905 24       		.uleb128 0x24
 2327 0906 56010000 		.4byte	.LASF64
 2328 090a 56010000 		.4byte	.LASF64
 2329 090e 05       		.byte	0x5
 2330 090f 38       		.byte	0x38
 2331 0910 24       		.uleb128 0x24
 2332 0911 0C000000 		.4byte	.LASF65
 2333 0915 0C000000 		.4byte	.LASF65
 2334 0919 06       		.byte	0x6
 2335 091a 34       		.byte	0x34
 2336 091b 24       		.uleb128 0x24
 2337 091c D1020000 		.4byte	.LASF66
 2338 0920 D1020000 		.4byte	.LASF66
 2339 0924 06       		.byte	0x6
ARM GAS  C:\Users\degn\AppData\Local\Temp\ccFJuEuV.s 			page 48


 2340 0925 D1       		.byte	0xd1
 2341 0926 24       		.uleb128 0x24
 2342 0927 F5020000 		.4byte	.LASF67
 2343 092b F5020000 		.4byte	.LASF67
 2344 092f 07       		.byte	0x7
 2345 0930 18       		.byte	0x18
 2346 0931 24       		.uleb128 0x24
 2347 0932 88030000 		.4byte	.LASF68
 2348 0936 88030000 		.4byte	.LASF68
 2349 093a 08       		.byte	0x8
 2350 093b 18       		.byte	0x18
 2351 093c 24       		.uleb128 0x24
 2352 093d 1C000000 		.4byte	.LASF69
 2353 0941 1C000000 		.4byte	.LASF69
 2354 0945 09       		.byte	0x9
 2355 0946 92       		.byte	0x92
 2356 0947 24       		.uleb128 0x24
 2357 0948 A8020000 		.4byte	.LASF70
 2358 094c A8020000 		.4byte	.LASF70
 2359 0950 0A       		.byte	0xa
 2360 0951 92       		.byte	0x92
 2361 0952 24       		.uleb128 0x24
 2362 0953 4A030000 		.4byte	.LASF71
 2363 0957 4A030000 		.4byte	.LASF71
 2364 095b 0B       		.byte	0xb
 2365 095c 18       		.byte	0x18
 2366 095d 24       		.uleb128 0x24
 2367 095e 26030000 		.4byte	.LASF72
 2368 0962 26030000 		.4byte	.LASF72
 2369 0966 0C       		.byte	0xc
 2370 0967 18       		.byte	0x18
 2371 0968 24       		.uleb128 0x24
 2372 0969 77020000 		.4byte	.LASF73
 2373 096d 77020000 		.4byte	.LASF73
 2374 0971 0D       		.byte	0xd
 2375 0972 18       		.byte	0x18
 2376 0973 24       		.uleb128 0x24
 2377 0974 4A010000 		.4byte	.LASF74
 2378 0978 4A010000 		.4byte	.LASF74
 2379 097c 05       		.byte	0x5
 2380 097d 3E       		.byte	0x3e
 2381 097e 24       		.uleb128 0x24
 2382 097f AA010000 		.4byte	.LASF75
 2383 0983 AA010000 		.4byte	.LASF75
 2384 0987 0E       		.byte	0xe
 2385 0988 E7       		.byte	0xe7
 2386 0989 24       		.uleb128 0x24
 2387 098a C8000000 		.4byte	.LASF76
 2388 098e C8000000 		.4byte	.LASF76
 2389 0992 06       		.byte	0x6
 2390 0993 3B       		.byte	0x3b
 2391 0994 24       		.uleb128 0x24
 2392 0995 D9040000 		.4byte	.LASF77
 2393 0999 D9040000 		.4byte	.LASF77
 2394 099d 0A       		.byte	0xa
 2395 099e BE       		.byte	0xbe
 2396 099f 24       		.uleb128 0x24
ARM GAS  C:\Users\degn\AppData\Local\Temp\ccFJuEuV.s 			page 49


 2397 09a0 F9000000 		.4byte	.LASF78
 2398 09a4 F9000000 		.4byte	.LASF78
 2399 09a8 0F       		.byte	0xf
 2400 09a9 29       		.byte	0x29
 2401 09aa 00       		.byte	0
 2402              		.section	.debug_abbrev,"",%progbits
 2403              	.Ldebug_abbrev0:
 2404 0000 01       		.uleb128 0x1
 2405 0001 11       		.uleb128 0x11
 2406 0002 01       		.byte	0x1
 2407 0003 25       		.uleb128 0x25
 2408 0004 0E       		.uleb128 0xe
 2409 0005 13       		.uleb128 0x13
 2410 0006 0B       		.uleb128 0xb
 2411 0007 03       		.uleb128 0x3
 2412 0008 0E       		.uleb128 0xe
 2413 0009 1B       		.uleb128 0x1b
 2414 000a 0E       		.uleb128 0xe
 2415 000b 55       		.uleb128 0x55
 2416 000c 17       		.uleb128 0x17
 2417 000d 11       		.uleb128 0x11
 2418 000e 01       		.uleb128 0x1
 2419 000f 10       		.uleb128 0x10
 2420 0010 17       		.uleb128 0x17
 2421 0011 00       		.byte	0
 2422 0012 00       		.byte	0
 2423 0013 02       		.uleb128 0x2
 2424 0014 24       		.uleb128 0x24
 2425 0015 00       		.byte	0
 2426 0016 0B       		.uleb128 0xb
 2427 0017 0B       		.uleb128 0xb
 2428 0018 3E       		.uleb128 0x3e
 2429 0019 0B       		.uleb128 0xb
 2430 001a 03       		.uleb128 0x3
 2431 001b 0E       		.uleb128 0xe
 2432 001c 00       		.byte	0
 2433 001d 00       		.byte	0
 2434 001e 03       		.uleb128 0x3
 2435 001f 16       		.uleb128 0x16
 2436 0020 00       		.byte	0
 2437 0021 03       		.uleb128 0x3
 2438 0022 0E       		.uleb128 0xe
 2439 0023 3A       		.uleb128 0x3a
 2440 0024 0B       		.uleb128 0xb
 2441 0025 3B       		.uleb128 0x3b
 2442 0026 0B       		.uleb128 0xb
 2443 0027 49       		.uleb128 0x49
 2444 0028 13       		.uleb128 0x13
 2445 0029 00       		.byte	0
 2446 002a 00       		.byte	0
 2447 002b 04       		.uleb128 0x4
 2448 002c 24       		.uleb128 0x24
 2449 002d 00       		.byte	0
 2450 002e 0B       		.uleb128 0xb
 2451 002f 0B       		.uleb128 0xb
 2452 0030 3E       		.uleb128 0x3e
 2453 0031 0B       		.uleb128 0xb
ARM GAS  C:\Users\degn\AppData\Local\Temp\ccFJuEuV.s 			page 50


 2454 0032 03       		.uleb128 0x3
 2455 0033 08       		.uleb128 0x8
 2456 0034 00       		.byte	0
 2457 0035 00       		.byte	0
 2458 0036 05       		.uleb128 0x5
 2459 0037 0F       		.uleb128 0xf
 2460 0038 00       		.byte	0
 2461 0039 0B       		.uleb128 0xb
 2462 003a 0B       		.uleb128 0xb
 2463 003b 49       		.uleb128 0x49
 2464 003c 13       		.uleb128 0x13
 2465 003d 00       		.byte	0
 2466 003e 00       		.byte	0
 2467 003f 06       		.uleb128 0x6
 2468 0040 04       		.uleb128 0x4
 2469 0041 01       		.byte	0x1
 2470 0042 03       		.uleb128 0x3
 2471 0043 0E       		.uleb128 0xe
 2472 0044 0B       		.uleb128 0xb
 2473 0045 0B       		.uleb128 0xb
 2474 0046 49       		.uleb128 0x49
 2475 0047 13       		.uleb128 0x13
 2476 0048 3A       		.uleb128 0x3a
 2477 0049 0B       		.uleb128 0xb
 2478 004a 3B       		.uleb128 0x3b
 2479 004b 0B       		.uleb128 0xb
 2480 004c 01       		.uleb128 0x1
 2481 004d 13       		.uleb128 0x13
 2482 004e 00       		.byte	0
 2483 004f 00       		.byte	0
 2484 0050 07       		.uleb128 0x7
 2485 0051 28       		.uleb128 0x28
 2486 0052 00       		.byte	0
 2487 0053 03       		.uleb128 0x3
 2488 0054 0E       		.uleb128 0xe
 2489 0055 1C       		.uleb128 0x1c
 2490 0056 0B       		.uleb128 0xb
 2491 0057 00       		.byte	0
 2492 0058 00       		.byte	0
 2493 0059 08       		.uleb128 0x8
 2494 005a 2E       		.uleb128 0x2e
 2495 005b 00       		.byte	0
 2496 005c 3F       		.uleb128 0x3f
 2497 005d 19       		.uleb128 0x19
 2498 005e 03       		.uleb128 0x3
 2499 005f 0E       		.uleb128 0xe
 2500 0060 3A       		.uleb128 0x3a
 2501 0061 0B       		.uleb128 0xb
 2502 0062 3B       		.uleb128 0x3b
 2503 0063 0B       		.uleb128 0xb
 2504 0064 27       		.uleb128 0x27
 2505 0065 19       		.uleb128 0x19
 2506 0066 11       		.uleb128 0x11
 2507 0067 01       		.uleb128 0x1
 2508 0068 12       		.uleb128 0x12
 2509 0069 06       		.uleb128 0x6
 2510 006a 40       		.uleb128 0x40
ARM GAS  C:\Users\degn\AppData\Local\Temp\ccFJuEuV.s 			page 51


 2511 006b 18       		.uleb128 0x18
 2512 006c 9742     		.uleb128 0x2117
 2513 006e 19       		.uleb128 0x19
 2514 006f 00       		.byte	0
 2515 0070 00       		.byte	0
 2516 0071 09       		.uleb128 0x9
 2517 0072 2E       		.uleb128 0x2e
 2518 0073 01       		.byte	0x1
 2519 0074 3F       		.uleb128 0x3f
 2520 0075 19       		.uleb128 0x19
 2521 0076 03       		.uleb128 0x3
 2522 0077 0E       		.uleb128 0xe
 2523 0078 3A       		.uleb128 0x3a
 2524 0079 0B       		.uleb128 0xb
 2525 007a 3B       		.uleb128 0x3b
 2526 007b 0B       		.uleb128 0xb
 2527 007c 27       		.uleb128 0x27
 2528 007d 19       		.uleb128 0x19
 2529 007e 11       		.uleb128 0x11
 2530 007f 01       		.uleb128 0x1
 2531 0080 12       		.uleb128 0x12
 2532 0081 06       		.uleb128 0x6
 2533 0082 40       		.uleb128 0x40
 2534 0083 18       		.uleb128 0x18
 2535 0084 9742     		.uleb128 0x2117
 2536 0086 19       		.uleb128 0x19
 2537 0087 01       		.uleb128 0x1
 2538 0088 13       		.uleb128 0x13
 2539 0089 00       		.byte	0
 2540 008a 00       		.byte	0
 2541 008b 0A       		.uleb128 0xa
 2542 008c 898201   		.uleb128 0x4109
 2543 008f 01       		.byte	0x1
 2544 0090 11       		.uleb128 0x11
 2545 0091 01       		.uleb128 0x1
 2546 0092 31       		.uleb128 0x31
 2547 0093 13       		.uleb128 0x13
 2548 0094 01       		.uleb128 0x1
 2549 0095 13       		.uleb128 0x13
 2550 0096 00       		.byte	0
 2551 0097 00       		.byte	0
 2552 0098 0B       		.uleb128 0xb
 2553 0099 8A8201   		.uleb128 0x410a
 2554 009c 00       		.byte	0
 2555 009d 02       		.uleb128 0x2
 2556 009e 18       		.uleb128 0x18
 2557 009f 9142     		.uleb128 0x2111
 2558 00a1 18       		.uleb128 0x18
 2559 00a2 00       		.byte	0
 2560 00a3 00       		.byte	0
 2561 00a4 0C       		.uleb128 0xc
 2562 00a5 898201   		.uleb128 0x4109
 2563 00a8 01       		.byte	0x1
 2564 00a9 11       		.uleb128 0x11
 2565 00aa 01       		.uleb128 0x1
 2566 00ab 31       		.uleb128 0x31
 2567 00ac 13       		.uleb128 0x13
ARM GAS  C:\Users\degn\AppData\Local\Temp\ccFJuEuV.s 			page 52


 2568 00ad 00       		.byte	0
 2569 00ae 00       		.byte	0
 2570 00af 0D       		.uleb128 0xd
 2571 00b0 2E       		.uleb128 0x2e
 2572 00b1 01       		.byte	0x1
 2573 00b2 3F       		.uleb128 0x3f
 2574 00b3 19       		.uleb128 0x19
 2575 00b4 03       		.uleb128 0x3
 2576 00b5 0E       		.uleb128 0xe
 2577 00b6 3A       		.uleb128 0x3a
 2578 00b7 0B       		.uleb128 0xb
 2579 00b8 3B       		.uleb128 0x3b
 2580 00b9 0B       		.uleb128 0xb
 2581 00ba 11       		.uleb128 0x11
 2582 00bb 01       		.uleb128 0x1
 2583 00bc 12       		.uleb128 0x12
 2584 00bd 06       		.uleb128 0x6
 2585 00be 40       		.uleb128 0x40
 2586 00bf 18       		.uleb128 0x18
 2587 00c0 9742     		.uleb128 0x2117
 2588 00c2 19       		.uleb128 0x19
 2589 00c3 01       		.uleb128 0x1
 2590 00c4 13       		.uleb128 0x13
 2591 00c5 00       		.byte	0
 2592 00c6 00       		.byte	0
 2593 00c7 0E       		.uleb128 0xe
 2594 00c8 898201   		.uleb128 0x4109
 2595 00cb 00       		.byte	0
 2596 00cc 11       		.uleb128 0x11
 2597 00cd 01       		.uleb128 0x1
 2598 00ce 31       		.uleb128 0x31
 2599 00cf 13       		.uleb128 0x13
 2600 00d0 00       		.byte	0
 2601 00d1 00       		.byte	0
 2602 00d2 0F       		.uleb128 0xf
 2603 00d3 05       		.uleb128 0x5
 2604 00d4 00       		.byte	0
 2605 00d5 03       		.uleb128 0x3
 2606 00d6 08       		.uleb128 0x8
 2607 00d7 3A       		.uleb128 0x3a
 2608 00d8 0B       		.uleb128 0xb
 2609 00d9 3B       		.uleb128 0x3b
 2610 00da 0B       		.uleb128 0xb
 2611 00db 49       		.uleb128 0x49
 2612 00dc 13       		.uleb128 0x13
 2613 00dd 02       		.uleb128 0x2
 2614 00de 17       		.uleb128 0x17
 2615 00df 00       		.byte	0
 2616 00e0 00       		.byte	0
 2617 00e1 10       		.uleb128 0x10
 2618 00e2 05       		.uleb128 0x5
 2619 00e3 00       		.byte	0
 2620 00e4 03       		.uleb128 0x3
 2621 00e5 0E       		.uleb128 0xe
 2622 00e6 3A       		.uleb128 0x3a
 2623 00e7 0B       		.uleb128 0xb
 2624 00e8 3B       		.uleb128 0x3b
ARM GAS  C:\Users\degn\AppData\Local\Temp\ccFJuEuV.s 			page 53


 2625 00e9 0B       		.uleb128 0xb
 2626 00ea 49       		.uleb128 0x49
 2627 00eb 13       		.uleb128 0x13
 2628 00ec 02       		.uleb128 0x2
 2629 00ed 17       		.uleb128 0x17
 2630 00ee 00       		.byte	0
 2631 00ef 00       		.byte	0
 2632 00f0 11       		.uleb128 0x11
 2633 00f1 2E       		.uleb128 0x2e
 2634 00f2 01       		.byte	0x1
 2635 00f3 3F       		.uleb128 0x3f
 2636 00f4 19       		.uleb128 0x19
 2637 00f5 03       		.uleb128 0x3
 2638 00f6 0E       		.uleb128 0xe
 2639 00f7 3A       		.uleb128 0x3a
 2640 00f8 0B       		.uleb128 0xb
 2641 00f9 3B       		.uleb128 0x3b
 2642 00fa 0B       		.uleb128 0xb
 2643 00fb 27       		.uleb128 0x27
 2644 00fc 19       		.uleb128 0x19
 2645 00fd 11       		.uleb128 0x11
 2646 00fe 01       		.uleb128 0x1
 2647 00ff 12       		.uleb128 0x12
 2648 0100 06       		.uleb128 0x6
 2649 0101 40       		.uleb128 0x40
 2650 0102 18       		.uleb128 0x18
 2651 0103 9642     		.uleb128 0x2116
 2652 0105 19       		.uleb128 0x19
 2653 0106 01       		.uleb128 0x1
 2654 0107 13       		.uleb128 0x13
 2655 0108 00       		.byte	0
 2656 0109 00       		.byte	0
 2657 010a 12       		.uleb128 0x12
 2658 010b 34       		.uleb128 0x34
 2659 010c 00       		.byte	0
 2660 010d 03       		.uleb128 0x3
 2661 010e 0E       		.uleb128 0xe
 2662 010f 3A       		.uleb128 0x3a
 2663 0110 0B       		.uleb128 0xb
 2664 0111 3B       		.uleb128 0x3b
 2665 0112 0B       		.uleb128 0xb
 2666 0113 49       		.uleb128 0x49
 2667 0114 13       		.uleb128 0x13
 2668 0115 02       		.uleb128 0x2
 2669 0116 18       		.uleb128 0x18
 2670 0117 00       		.byte	0
 2671 0118 00       		.byte	0
 2672 0119 13       		.uleb128 0x13
 2673 011a 01       		.uleb128 0x1
 2674 011b 01       		.byte	0x1
 2675 011c 49       		.uleb128 0x49
 2676 011d 13       		.uleb128 0x13
 2677 011e 01       		.uleb128 0x1
 2678 011f 13       		.uleb128 0x13
 2679 0120 00       		.byte	0
 2680 0121 00       		.byte	0
 2681 0122 14       		.uleb128 0x14
ARM GAS  C:\Users\degn\AppData\Local\Temp\ccFJuEuV.s 			page 54


 2682 0123 21       		.uleb128 0x21
 2683 0124 00       		.byte	0
 2684 0125 49       		.uleb128 0x49
 2685 0126 13       		.uleb128 0x13
 2686 0127 2F       		.uleb128 0x2f
 2687 0128 0B       		.uleb128 0xb
 2688 0129 00       		.byte	0
 2689 012a 00       		.byte	0
 2690 012b 15       		.uleb128 0x15
 2691 012c 2E       		.uleb128 0x2e
 2692 012d 01       		.byte	0x1
 2693 012e 3F       		.uleb128 0x3f
 2694 012f 19       		.uleb128 0x19
 2695 0130 03       		.uleb128 0x3
 2696 0131 0E       		.uleb128 0xe
 2697 0132 3A       		.uleb128 0x3a
 2698 0133 0B       		.uleb128 0xb
 2699 0134 3B       		.uleb128 0x3b
 2700 0135 0B       		.uleb128 0xb
 2701 0136 27       		.uleb128 0x27
 2702 0137 19       		.uleb128 0x19
 2703 0138 49       		.uleb128 0x49
 2704 0139 13       		.uleb128 0x13
 2705 013a 11       		.uleb128 0x11
 2706 013b 01       		.uleb128 0x1
 2707 013c 12       		.uleb128 0x12
 2708 013d 06       		.uleb128 0x6
 2709 013e 40       		.uleb128 0x40
 2710 013f 18       		.uleb128 0x18
 2711 0140 9642     		.uleb128 0x2116
 2712 0142 19       		.uleb128 0x19
 2713 0143 01       		.uleb128 0x1
 2714 0144 13       		.uleb128 0x13
 2715 0145 00       		.byte	0
 2716 0146 00       		.byte	0
 2717 0147 16       		.uleb128 0x16
 2718 0148 2E       		.uleb128 0x2e
 2719 0149 01       		.byte	0x1
 2720 014a 3F       		.uleb128 0x3f
 2721 014b 19       		.uleb128 0x19
 2722 014c 03       		.uleb128 0x3
 2723 014d 0E       		.uleb128 0xe
 2724 014e 3A       		.uleb128 0x3a
 2725 014f 0B       		.uleb128 0xb
 2726 0150 3B       		.uleb128 0x3b
 2727 0151 0B       		.uleb128 0xb
 2728 0152 49       		.uleb128 0x49
 2729 0153 13       		.uleb128 0x13
 2730 0154 11       		.uleb128 0x11
 2731 0155 01       		.uleb128 0x1
 2732 0156 12       		.uleb128 0x12
 2733 0157 06       		.uleb128 0x6
 2734 0158 40       		.uleb128 0x40
 2735 0159 18       		.uleb128 0x18
 2736 015a 9742     		.uleb128 0x2117
 2737 015c 19       		.uleb128 0x19
 2738 015d 01       		.uleb128 0x1
ARM GAS  C:\Users\degn\AppData\Local\Temp\ccFJuEuV.s 			page 55


 2739 015e 13       		.uleb128 0x13
 2740 015f 00       		.byte	0
 2741 0160 00       		.byte	0
 2742 0161 17       		.uleb128 0x17
 2743 0162 34       		.uleb128 0x34
 2744 0163 00       		.byte	0
 2745 0164 03       		.uleb128 0x3
 2746 0165 0E       		.uleb128 0xe
 2747 0166 3A       		.uleb128 0x3a
 2748 0167 0B       		.uleb128 0xb
 2749 0168 3B       		.uleb128 0x3b
 2750 0169 0B       		.uleb128 0xb
 2751 016a 49       		.uleb128 0x49
 2752 016b 13       		.uleb128 0x13
 2753 016c 02       		.uleb128 0x2
 2754 016d 17       		.uleb128 0x17
 2755 016e 00       		.byte	0
 2756 016f 00       		.byte	0
 2757 0170 18       		.uleb128 0x18
 2758 0171 34       		.uleb128 0x34
 2759 0172 00       		.byte	0
 2760 0173 03       		.uleb128 0x3
 2761 0174 08       		.uleb128 0x8
 2762 0175 3A       		.uleb128 0x3a
 2763 0176 0B       		.uleb128 0xb
 2764 0177 3B       		.uleb128 0x3b
 2765 0178 0B       		.uleb128 0xb
 2766 0179 49       		.uleb128 0x49
 2767 017a 13       		.uleb128 0x13
 2768 017b 02       		.uleb128 0x2
 2769 017c 17       		.uleb128 0x17
 2770 017d 00       		.byte	0
 2771 017e 00       		.byte	0
 2772 017f 19       		.uleb128 0x19
 2773 0180 2E       		.uleb128 0x2e
 2774 0181 01       		.byte	0x1
 2775 0182 3F       		.uleb128 0x3f
 2776 0183 19       		.uleb128 0x19
 2777 0184 03       		.uleb128 0x3
 2778 0185 0E       		.uleb128 0xe
 2779 0186 3A       		.uleb128 0x3a
 2780 0187 0B       		.uleb128 0xb
 2781 0188 3B       		.uleb128 0x3b
 2782 0189 05       		.uleb128 0x5
 2783 018a 49       		.uleb128 0x49
 2784 018b 13       		.uleb128 0x13
 2785 018c 11       		.uleb128 0x11
 2786 018d 01       		.uleb128 0x1
 2787 018e 12       		.uleb128 0x12
 2788 018f 06       		.uleb128 0x6
 2789 0190 40       		.uleb128 0x40
 2790 0191 18       		.uleb128 0x18
 2791 0192 9742     		.uleb128 0x2117
 2792 0194 19       		.uleb128 0x19
 2793 0195 01       		.uleb128 0x1
 2794 0196 13       		.uleb128 0x13
 2795 0197 00       		.byte	0
ARM GAS  C:\Users\degn\AppData\Local\Temp\ccFJuEuV.s 			page 56


 2796 0198 00       		.byte	0
 2797 0199 1A       		.uleb128 0x1a
 2798 019a 2E       		.uleb128 0x2e
 2799 019b 01       		.byte	0x1
 2800 019c 3F       		.uleb128 0x3f
 2801 019d 19       		.uleb128 0x19
 2802 019e 03       		.uleb128 0x3
 2803 019f 0E       		.uleb128 0xe
 2804 01a0 3A       		.uleb128 0x3a
 2805 01a1 0B       		.uleb128 0xb
 2806 01a2 3B       		.uleb128 0x3b
 2807 01a3 05       		.uleb128 0x5
 2808 01a4 27       		.uleb128 0x27
 2809 01a5 19       		.uleb128 0x19
 2810 01a6 49       		.uleb128 0x49
 2811 01a7 13       		.uleb128 0x13
 2812 01a8 11       		.uleb128 0x11
 2813 01a9 01       		.uleb128 0x1
 2814 01aa 12       		.uleb128 0x12
 2815 01ab 06       		.uleb128 0x6
 2816 01ac 40       		.uleb128 0x40
 2817 01ad 18       		.uleb128 0x18
 2818 01ae 9742     		.uleb128 0x2117
 2819 01b0 19       		.uleb128 0x19
 2820 01b1 01       		.uleb128 0x1
 2821 01b2 13       		.uleb128 0x13
 2822 01b3 00       		.byte	0
 2823 01b4 00       		.byte	0
 2824 01b5 1B       		.uleb128 0x1b
 2825 01b6 05       		.uleb128 0x5
 2826 01b7 00       		.byte	0
 2827 01b8 03       		.uleb128 0x3
 2828 01b9 0E       		.uleb128 0xe
 2829 01ba 3A       		.uleb128 0x3a
 2830 01bb 0B       		.uleb128 0xb
 2831 01bc 3B       		.uleb128 0x3b
 2832 01bd 05       		.uleb128 0x5
 2833 01be 49       		.uleb128 0x49
 2834 01bf 13       		.uleb128 0x13
 2835 01c0 02       		.uleb128 0x2
 2836 01c1 17       		.uleb128 0x17
 2837 01c2 00       		.byte	0
 2838 01c3 00       		.byte	0
 2839 01c4 1C       		.uleb128 0x1c
 2840 01c5 34       		.uleb128 0x34
 2841 01c6 00       		.byte	0
 2842 01c7 03       		.uleb128 0x3
 2843 01c8 0E       		.uleb128 0xe
 2844 01c9 3A       		.uleb128 0x3a
 2845 01ca 0B       		.uleb128 0xb
 2846 01cb 3B       		.uleb128 0x3b
 2847 01cc 05       		.uleb128 0x5
 2848 01cd 49       		.uleb128 0x49
 2849 01ce 13       		.uleb128 0x13
 2850 01cf 02       		.uleb128 0x2
 2851 01d0 17       		.uleb128 0x17
 2852 01d1 00       		.byte	0
ARM GAS  C:\Users\degn\AppData\Local\Temp\ccFJuEuV.s 			page 57


 2853 01d2 00       		.byte	0
 2854 01d3 1D       		.uleb128 0x1d
 2855 01d4 34       		.uleb128 0x34
 2856 01d5 00       		.byte	0
 2857 01d6 03       		.uleb128 0x3
 2858 01d7 0E       		.uleb128 0xe
 2859 01d8 3A       		.uleb128 0x3a
 2860 01d9 0B       		.uleb128 0xb
 2861 01da 3B       		.uleb128 0x3b
 2862 01db 0B       		.uleb128 0xb
 2863 01dc 49       		.uleb128 0x49
 2864 01dd 13       		.uleb128 0x13
 2865 01de 1C       		.uleb128 0x1c
 2866 01df 0B       		.uleb128 0xb
 2867 01e0 00       		.byte	0
 2868 01e1 00       		.byte	0
 2869 01e2 1E       		.uleb128 0x1e
 2870 01e3 0B       		.uleb128 0xb
 2871 01e4 01       		.byte	0x1
 2872 01e5 55       		.uleb128 0x55
 2873 01e6 17       		.uleb128 0x17
 2874 01e7 01       		.uleb128 0x1
 2875 01e8 13       		.uleb128 0x13
 2876 01e9 00       		.byte	0
 2877 01ea 00       		.byte	0
 2878 01eb 1F       		.uleb128 0x1f
 2879 01ec 34       		.uleb128 0x34
 2880 01ed 00       		.byte	0
 2881 01ee 03       		.uleb128 0x3
 2882 01ef 08       		.uleb128 0x8
 2883 01f0 3A       		.uleb128 0x3a
 2884 01f1 0B       		.uleb128 0xb
 2885 01f2 3B       		.uleb128 0x3b
 2886 01f3 0B       		.uleb128 0xb
 2887 01f4 49       		.uleb128 0x49
 2888 01f5 13       		.uleb128 0x13
 2889 01f6 02       		.uleb128 0x2
 2890 01f7 18       		.uleb128 0x18
 2891 01f8 00       		.byte	0
 2892 01f9 00       		.byte	0
 2893 01fa 20       		.uleb128 0x20
 2894 01fb 34       		.uleb128 0x34
 2895 01fc 00       		.byte	0
 2896 01fd 03       		.uleb128 0x3
 2897 01fe 0E       		.uleb128 0xe
 2898 01ff 3A       		.uleb128 0x3a
 2899 0200 0B       		.uleb128 0xb
 2900 0201 3B       		.uleb128 0x3b
 2901 0202 05       		.uleb128 0x5
 2902 0203 49       		.uleb128 0x49
 2903 0204 13       		.uleb128 0x13
 2904 0205 3F       		.uleb128 0x3f
 2905 0206 19       		.uleb128 0x19
 2906 0207 3C       		.uleb128 0x3c
 2907 0208 19       		.uleb128 0x19
 2908 0209 00       		.byte	0
 2909 020a 00       		.byte	0
ARM GAS  C:\Users\degn\AppData\Local\Temp\ccFJuEuV.s 			page 58


 2910 020b 21       		.uleb128 0x21
 2911 020c 35       		.uleb128 0x35
 2912 020d 00       		.byte	0
 2913 020e 49       		.uleb128 0x49
 2914 020f 13       		.uleb128 0x13
 2915 0210 00       		.byte	0
 2916 0211 00       		.byte	0
 2917 0212 22       		.uleb128 0x22
 2918 0213 34       		.uleb128 0x34
 2919 0214 00       		.byte	0
 2920 0215 03       		.uleb128 0x3
 2921 0216 0E       		.uleb128 0xe
 2922 0217 3A       		.uleb128 0x3a
 2923 0218 0B       		.uleb128 0xb
 2924 0219 3B       		.uleb128 0x3b
 2925 021a 0B       		.uleb128 0xb
 2926 021b 49       		.uleb128 0x49
 2927 021c 13       		.uleb128 0x13
 2928 021d 3F       		.uleb128 0x3f
 2929 021e 19       		.uleb128 0x19
 2930 021f 02       		.uleb128 0x2
 2931 0220 18       		.uleb128 0x18
 2932 0221 00       		.byte	0
 2933 0222 00       		.byte	0
 2934 0223 23       		.uleb128 0x23
 2935 0224 34       		.uleb128 0x34
 2936 0225 00       		.byte	0
 2937 0226 03       		.uleb128 0x3
 2938 0227 08       		.uleb128 0x8
 2939 0228 3A       		.uleb128 0x3a
 2940 0229 0B       		.uleb128 0xb
 2941 022a 3B       		.uleb128 0x3b
 2942 022b 0B       		.uleb128 0xb
 2943 022c 49       		.uleb128 0x49
 2944 022d 13       		.uleb128 0x13
 2945 022e 3F       		.uleb128 0x3f
 2946 022f 19       		.uleb128 0x19
 2947 0230 02       		.uleb128 0x2
 2948 0231 18       		.uleb128 0x18
 2949 0232 00       		.byte	0
 2950 0233 00       		.byte	0
 2951 0234 24       		.uleb128 0x24
 2952 0235 2E       		.uleb128 0x2e
 2953 0236 00       		.byte	0
 2954 0237 3F       		.uleb128 0x3f
 2955 0238 19       		.uleb128 0x19
 2956 0239 3C       		.uleb128 0x3c
 2957 023a 19       		.uleb128 0x19
 2958 023b 6E       		.uleb128 0x6e
 2959 023c 0E       		.uleb128 0xe
 2960 023d 03       		.uleb128 0x3
 2961 023e 0E       		.uleb128 0xe
 2962 023f 3A       		.uleb128 0x3a
 2963 0240 0B       		.uleb128 0xb
 2964 0241 3B       		.uleb128 0x3b
 2965 0242 0B       		.uleb128 0xb
 2966 0243 00       		.byte	0
ARM GAS  C:\Users\degn\AppData\Local\Temp\ccFJuEuV.s 			page 59


 2967 0244 00       		.byte	0
 2968 0245 00       		.byte	0
 2969              		.section	.debug_loc,"",%progbits
 2970              	.Ldebug_loc0:
 2971              	.LLST0:
 2972 0000 00000000 		.4byte	.LVL23
 2973 0004 0C000000 		.4byte	.LVL24
 2974 0008 0100     		.2byte	0x1
 2975 000a 50       		.byte	0x50
 2976 000b 0C000000 		.4byte	.LVL24
 2977 000f 4A000000 		.4byte	.LFE74
 2978 0013 0100     		.2byte	0x1
 2979 0015 57       		.byte	0x57
 2980 0016 00000000 		.4byte	0
 2981 001a 00000000 		.4byte	0
 2982              	.LLST1:
 2983 001e 00000000 		.4byte	.LVL23
 2984 0022 0F000000 		.4byte	.LVL25-1
 2985 0026 0100     		.2byte	0x1
 2986 0028 51       		.byte	0x51
 2987 0029 0F000000 		.4byte	.LVL25-1
 2988 002d 4A000000 		.4byte	.LFE74
 2989 0031 0100     		.2byte	0x1
 2990 0033 56       		.byte	0x56
 2991 0034 00000000 		.4byte	0
 2992 0038 00000000 		.4byte	0
 2993              	.LLST2:
 2994 003c 00000000 		.4byte	.LVL23
 2995 0040 0F000000 		.4byte	.LVL25-1
 2996 0044 0100     		.2byte	0x1
 2997 0046 52       		.byte	0x52
 2998 0047 0F000000 		.4byte	.LVL25-1
 2999 004b 4A000000 		.4byte	.LFE74
 3000 004f 0100     		.2byte	0x1
 3001 0051 55       		.byte	0x55
 3002 0052 00000000 		.4byte	0
 3003 0056 00000000 		.4byte	0
 3004              	.LLST3:
 3005 005a 00000000 		.4byte	.LVL23
 3006 005e 0F000000 		.4byte	.LVL25-1
 3007 0062 0100     		.2byte	0x1
 3008 0064 53       		.byte	0x53
 3009 0065 0F000000 		.4byte	.LVL25-1
 3010 0069 4A000000 		.4byte	.LFE74
 3011 006d 0100     		.2byte	0x1
 3012 006f 54       		.byte	0x54
 3013 0070 00000000 		.4byte	0
 3014 0074 00000000 		.4byte	0
 3015              	.LLST4:
 3016 0078 00000000 		.4byte	.LVL34
 3017 007c 0A000000 		.4byte	.LVL35
 3018 0080 0100     		.2byte	0x1
 3019 0082 50       		.byte	0x50
 3020 0083 0A000000 		.4byte	.LVL35
 3021 0087 4A000000 		.4byte	.LVL44
 3022 008b 0100     		.2byte	0x1
 3023 008d 55       		.byte	0x55
ARM GAS  C:\Users\degn\AppData\Local\Temp\ccFJuEuV.s 			page 60


 3024 008e 4A000000 		.4byte	.LVL44
 3025 0092 54000000 		.4byte	.LFE75
 3026 0096 0400     		.2byte	0x4
 3027 0098 F3       		.byte	0xf3
 3028 0099 01       		.uleb128 0x1
 3029 009a 50       		.byte	0x50
 3030 009b 9F       		.byte	0x9f
 3031 009c 00000000 		.4byte	0
 3032 00a0 00000000 		.4byte	0
 3033              	.LLST5:
 3034 00a4 00000000 		.4byte	.LVL34
 3035 00a8 0D000000 		.4byte	.LVL36-1
 3036 00ac 0100     		.2byte	0x1
 3037 00ae 51       		.byte	0x51
 3038 00af 0D000000 		.4byte	.LVL36-1
 3039 00b3 4A000000 		.4byte	.LVL44
 3040 00b7 0100     		.2byte	0x1
 3041 00b9 54       		.byte	0x54
 3042 00ba 4A000000 		.4byte	.LVL44
 3043 00be 54000000 		.4byte	.LFE75
 3044 00c2 0600     		.2byte	0x6
 3045 00c4 F3       		.byte	0xf3
 3046 00c5 03       		.uleb128 0x3
 3047 00c6 F5       		.byte	0xf5
 3048 00c7 01       		.uleb128 0x1
 3049 00c8 25       		.uleb128 0x25
 3050 00c9 9F       		.byte	0x9f
 3051 00ca 00000000 		.4byte	0
 3052 00ce 00000000 		.4byte	0
 3053              	.LLST6:
 3054 00d2 00000000 		.4byte	.LVL45
 3055 00d6 10000000 		.4byte	.LVL46
 3056 00da 0100     		.2byte	0x1
 3057 00dc 50       		.byte	0x50
 3058 00dd 10000000 		.4byte	.LVL46
 3059 00e1 6A000000 		.4byte	.LVL54
 3060 00e5 0100     		.2byte	0x1
 3061 00e7 58       		.byte	0x58
 3062 00e8 6A000000 		.4byte	.LVL54
 3063 00ec 74000000 		.4byte	.LFE76
 3064 00f0 0400     		.2byte	0x4
 3065 00f2 F3       		.byte	0xf3
 3066 00f3 01       		.uleb128 0x1
 3067 00f4 50       		.byte	0x50
 3068 00f5 9F       		.byte	0x9f
 3069 00f6 00000000 		.4byte	0
 3070 00fa 00000000 		.4byte	0
 3071              	.LLST7:
 3072 00fe 02000000 		.4byte	.LVL55
 3073 0102 50000000 		.4byte	.LVL61
 3074 0106 0200     		.2byte	0x2
 3075 0108 31       		.byte	0x31
 3076 0109 9F       		.byte	0x9f
 3077 010a 50000000 		.4byte	.LVL61
 3078 010e 5A000000 		.4byte	.LVL62
 3079 0112 0200     		.2byte	0x2
 3080 0114 32       		.byte	0x32
ARM GAS  C:\Users\degn\AppData\Local\Temp\ccFJuEuV.s 			page 61


 3081 0115 9F       		.byte	0x9f
 3082 0116 5A000000 		.4byte	.LVL62
 3083 011a 66000000 		.4byte	.LVL64
 3084 011e 0200     		.2byte	0x2
 3085 0120 31       		.byte	0x31
 3086 0121 9F       		.byte	0x9f
 3087 0122 66000000 		.4byte	.LVL64
 3088 0126 6E000000 		.4byte	.LVL65
 3089 012a 0200     		.2byte	0x2
 3090 012c 32       		.byte	0x32
 3091 012d 9F       		.byte	0x9f
 3092 012e 00000000 		.4byte	0
 3093 0132 00000000 		.4byte	0
 3094              	.LLST8:
 3095 0136 06000000 		.4byte	.LVL66
 3096 013a 12000000 		.4byte	.LVL67
 3097 013e 0100     		.2byte	0x1
 3098 0140 50       		.byte	0x50
 3099 0141 12000000 		.4byte	.LVL67
 3100 0145 1A000000 		.4byte	.LVL68
 3101 0149 0400     		.2byte	0x4
 3102 014b 70       		.byte	0x70
 3103 014c 8210     		.sleb128 2050
 3104 014e 9F       		.byte	0x9f
 3105 014f 34000000 		.4byte	.LVL70
 3106 0153 3E000000 		.4byte	.LVL71
 3107 0157 0100     		.2byte	0x1
 3108 0159 50       		.byte	0x50
 3109 015a 64000000 		.4byte	.LVL73
 3110 015e 74000000 		.4byte	.LFE80
 3111 0162 0100     		.2byte	0x1
 3112 0164 50       		.byte	0x50
 3113 0165 00000000 		.4byte	0
 3114 0169 00000000 		.4byte	0
 3115              	.LLST9:
 3116 016d 00000000 		.4byte	.LVL82
 3117 0171 10000000 		.4byte	.LVL83
 3118 0175 0100     		.2byte	0x1
 3119 0177 50       		.byte	0x50
 3120 0178 10000000 		.4byte	.LVL83
 3121 017c 12000000 		.4byte	.LVL84
 3122 0180 0400     		.2byte	0x4
 3123 0182 F3       		.byte	0xf3
 3124 0183 01       		.uleb128 0x1
 3125 0184 50       		.byte	0x50
 3126 0185 9F       		.byte	0x9f
 3127 0186 12000000 		.4byte	.LVL84
 3128 018a 18000000 		.4byte	.LVL86
 3129 018e 0100     		.2byte	0x1
 3130 0190 50       		.byte	0x50
 3131 0191 18000000 		.4byte	.LVL86
 3132 0195 20000000 		.4byte	.LVL87
 3133 0199 0300     		.2byte	0x3
 3134 019b 70       		.byte	0x70
 3135 019c 1E       		.sleb128 30
 3136 019d 9F       		.byte	0x9f
 3137 019e 00000000 		.4byte	0
ARM GAS  C:\Users\degn\AppData\Local\Temp\ccFJuEuV.s 			page 62


 3138 01a2 00000000 		.4byte	0
 3139              	.LLST10:
 3140 01a6 2A000000 		.4byte	.LVL88
 3141 01aa 2C000000 		.4byte	.LVL89
 3142 01ae 0300     		.2byte	0x3
 3143 01b0 70       		.byte	0x70
 3144 01b1 5D       		.sleb128 -35
 3145 01b2 9F       		.byte	0x9f
 3146 01b3 2C000000 		.4byte	.LVL89
 3147 01b7 34000000 		.4byte	.LFE82
 3148 01bb 0100     		.2byte	0x1
 3149 01bd 50       		.byte	0x50
 3150 01be 00000000 		.4byte	0
 3151 01c2 00000000 		.4byte	0
 3152              	.LLST11:
 3153 01c6 02000000 		.4byte	.LVL92
 3154 01ca 08000000 		.4byte	.LVL93
 3155 01ce 0200     		.2byte	0x2
 3156 01d0 30       		.byte	0x30
 3157 01d1 9F       		.byte	0x9f
 3158 01d2 08000000 		.4byte	.LVL93
 3159 01d6 1C000000 		.4byte	.LVL97
 3160 01da 0100     		.2byte	0x1
 3161 01dc 55       		.byte	0x55
 3162 01dd 1C000000 		.4byte	.LVL97
 3163 01e1 20000000 		.4byte	.LVL98
 3164 01e5 0800     		.2byte	0x8
 3165 01e7 70       		.byte	0x70
 3166 01e8 00       		.sleb128 0
 3167 01e9 32       		.byte	0x32
 3168 01ea 26       		.byte	0x26
 3169 01eb 75       		.byte	0x75
 3170 01ec 00       		.sleb128 0
 3171 01ed 1C       		.byte	0x1c
 3172 01ee 9F       		.byte	0x9f
 3173 01ef 20000000 		.4byte	.LVL98
 3174 01f3 23000000 		.4byte	.LVL99-1
 3175 01f7 0100     		.2byte	0x1
 3176 01f9 50       		.byte	0x50
 3177 01fa 00000000 		.4byte	0
 3178 01fe 00000000 		.4byte	0
 3179              	.LLST12:
 3180 0202 02000000 		.4byte	.LVL92
 3181 0206 08000000 		.4byte	.LVL93
 3182 020a 0200     		.2byte	0x2
 3183 020c 30       		.byte	0x30
 3184 020d 9F       		.byte	0x9f
 3185 020e 08000000 		.4byte	.LVL93
 3186 0212 2C000000 		.4byte	.LVL100
 3187 0216 0100     		.2byte	0x1
 3188 0218 54       		.byte	0x54
 3189 0219 00000000 		.4byte	0
 3190 021d 00000000 		.4byte	0
 3191              		.section	.debug_aranges,"",%progbits
 3192 0000 AC000000 		.4byte	0xac
 3193 0004 0200     		.2byte	0x2
 3194 0006 00000000 		.4byte	.Ldebug_info0
ARM GAS  C:\Users\degn\AppData\Local\Temp\ccFJuEuV.s 			page 63


 3195 000a 04       		.byte	0x4
 3196 000b 00       		.byte	0
 3197 000c 0000     		.2byte	0
 3198 000e 0000     		.2byte	0
 3199 0010 00000000 		.4byte	.LFB64
 3200 0014 38000000 		.4byte	.LFE64-.LFB64
 3201 0018 00000000 		.4byte	.LFB65
 3202 001c 38000000 		.4byte	.LFE65-.LFB65
 3203 0020 00000000 		.4byte	.LFB67
 3204 0024 1C000000 		.4byte	.LFE67-.LFB67
 3205 0028 00000000 		.4byte	.LFB68
 3206 002c 1C000000 		.4byte	.LFE68-.LFB68
 3207 0030 00000000 		.4byte	.LFB70
 3208 0034 34000000 		.4byte	.LFE70-.LFB70
 3209 0038 00000000 		.4byte	.LFB71
 3210 003c 0C000000 		.4byte	.LFE71-.LFB71
 3211 0040 00000000 		.4byte	.LFB69
 3212 0044 20000000 		.4byte	.LFE69-.LFB69
 3213 0048 00000000 		.4byte	.LFB72
 3214 004c 0C000000 		.4byte	.LFE72-.LFB72
 3215 0050 00000000 		.4byte	.LFB73
 3216 0054 24000000 		.4byte	.LFE73-.LFB73
 3217 0058 00000000 		.4byte	.LFB74
 3218 005c 4A000000 		.4byte	.LFE74-.LFB74
 3219 0060 00000000 		.4byte	.LFB75
 3220 0064 54000000 		.4byte	.LFE75-.LFB75
 3221 0068 00000000 		.4byte	.LFB76
 3222 006c 74000000 		.4byte	.LFE76-.LFB76
 3223 0070 00000000 		.4byte	.LFB79
 3224 0074 9C000000 		.4byte	.LFE79-.LFB79
 3225 0078 00000000 		.4byte	.LFB80
 3226 007c 74000000 		.4byte	.LFE80-.LFB80
 3227 0080 00000000 		.4byte	.LFB81
 3228 0084 08000000 		.4byte	.LFE81-.LFB81
 3229 0088 00000000 		.4byte	.LFB66
 3230 008c 8C000000 		.4byte	.LFE66-.LFB66
 3231 0090 00000000 		.4byte	.LFB82
 3232 0094 34000000 		.4byte	.LFE82-.LFB82
 3233 0098 00000000 		.4byte	.LFB77
 3234 009c 0C000000 		.4byte	.LFE77-.LFB77
 3235 00a0 00000000 		.4byte	.LFB78
 3236 00a4 34000000 		.4byte	.LFE78-.LFB78
 3237 00a8 00000000 		.4byte	0
 3238 00ac 00000000 		.4byte	0
 3239              		.section	.debug_ranges,"",%progbits
 3240              	.Ldebug_ranges0:
 3241 0000 02000000 		.4byte	.LBB2
 3242 0004 04000000 		.4byte	.LBE2
 3243 0008 06000000 		.4byte	.LBB3
 3244 000c 14000000 		.4byte	.LBE3
 3245 0010 00000000 		.4byte	0
 3246 0014 00000000 		.4byte	0
 3247 0018 00000000 		.4byte	.LFB64
 3248 001c 38000000 		.4byte	.LFE64
 3249 0020 00000000 		.4byte	.LFB65
 3250 0024 38000000 		.4byte	.LFE65
 3251 0028 00000000 		.4byte	.LFB67
ARM GAS  C:\Users\degn\AppData\Local\Temp\ccFJuEuV.s 			page 64


 3252 002c 1C000000 		.4byte	.LFE67
 3253 0030 00000000 		.4byte	.LFB68
 3254 0034 1C000000 		.4byte	.LFE68
 3255 0038 00000000 		.4byte	.LFB70
 3256 003c 34000000 		.4byte	.LFE70
 3257 0040 00000000 		.4byte	.LFB71
 3258 0044 0C000000 		.4byte	.LFE71
 3259 0048 00000000 		.4byte	.LFB69
 3260 004c 20000000 		.4byte	.LFE69
 3261 0050 00000000 		.4byte	.LFB72
 3262 0054 0C000000 		.4byte	.LFE72
 3263 0058 00000000 		.4byte	.LFB73
 3264 005c 24000000 		.4byte	.LFE73
 3265 0060 00000000 		.4byte	.LFB74
 3266 0064 4A000000 		.4byte	.LFE74
 3267 0068 00000000 		.4byte	.LFB75
 3268 006c 54000000 		.4byte	.LFE75
 3269 0070 00000000 		.4byte	.LFB76
 3270 0074 74000000 		.4byte	.LFE76
 3271 0078 00000000 		.4byte	.LFB79
 3272 007c 9C000000 		.4byte	.LFE79
 3273 0080 00000000 		.4byte	.LFB80
 3274 0084 74000000 		.4byte	.LFE80
 3275 0088 00000000 		.4byte	.LFB81
 3276 008c 08000000 		.4byte	.LFE81
 3277 0090 00000000 		.4byte	.LFB66
 3278 0094 8C000000 		.4byte	.LFE66
 3279 0098 00000000 		.4byte	.LFB82
 3280 009c 34000000 		.4byte	.LFE82
 3281 00a0 00000000 		.4byte	.LFB77
 3282 00a4 0C000000 		.4byte	.LFE77
 3283 00a8 00000000 		.4byte	.LFB78
 3284 00ac 34000000 		.4byte	.LFE78
 3285 00b0 00000000 		.4byte	0
 3286 00b4 00000000 		.4byte	0
 3287              		.section	.debug_line,"",%progbits
 3288              	.Ldebug_line0:
 3289 0000 1B040000 		.section	.debug_str,"MS",%progbits,1
 3289      02005B02 
 3289      00000201 
 3289      FB0E0D00 
 3289      01010101 
 3290              	.LASF16:
 3291 0000 6C6F6E67 		.ascii	"long double\000"
 3291      20646F75 
 3291      626C6500 
 3292              	.LASF65:
 3293 000c 4144435F 		.ascii	"ADC_SAR_1_Start\000"
 3293      5341525F 
 3293      315F5374 
 3293      61727400 
 3294              	.LASF69:
 3295 001c 50574D5F 		.ascii	"PWM_1_Start\000"
 3295      315F5374 
 3295      61727400 
 3296              	.LASF57:
 3297 0028 74656D70 		.ascii	"tempbuffer\000"
ARM GAS  C:\Users\degn\AppData\Local\Temp\ccFJuEuV.s 			page 65


 3297      62756666 
 3297      657200
 3298              	.LASF61:
 3299 0033 4C43445F 		.ascii	"LCD_WriteControl\000"
 3299      57726974 
 3299      65436F6E 
 3299      74726F6C 
 3299      00
 3300              	.LASF3:
 3301 0044 73686F72 		.ascii	"short int\000"
 3301      7420696E 
 3301      7400
 3302              	.LASF17:
 3303 004e 73697A65 		.ascii	"sizetype\000"
 3303      74797065 
 3303      00
 3304              	.LASF45:
 3305 0057 4649524D 		.ascii	"FIRMovingAverage\000"
 3305      6F76696E 
 3305      67417665 
 3305      72616765 
 3305      00
 3306              	.LASF41:
 3307 0068 6A756D70 		.ascii	"jump\000"
 3307      00
 3308              	.LASF9:
 3309 006d 6C6F6E67 		.ascii	"long long int\000"
 3309      206C6F6E 
 3309      6720696E 
 3309      7400
 3310              	.LASF43:
 3311 007b 6D6F746F 		.ascii	"motorSwitch\000"
 3311      72537769 
 3311      74636800 
 3312              	.LASF40:
 3313 0087 62756666 		.ascii	"buff\000"
 3313      00
 3314              	.LASF55:
 3315 008c 4C434462 		.ascii	"LCDbuffer\000"
 3315      75666665 
 3315      7200
 3316              	.LASF47:
 3317 0096 6164635F 		.ascii	"adc_value\000"
 3317      76616C75 
 3317      6500
 3318              	.LASF24:
 3319 00a0 4953525F 		.ascii	"ISR_motorSwitch_On_handler\000"
 3319      6D6F746F 
 3319      72537769 
 3319      7463685F 
 3319      4F6E5F68 
 3320              	.LASF50:
 3321 00bb 6C6F6F70 		.ascii	"loops\000"
 3321      7300
 3322              	.LASF37:
 3323 00c1 73656E73 		.ascii	"sensor\000"
 3323      6F7200
ARM GAS  C:\Users\degn\AppData\Local\Temp\ccFJuEuV.s 			page 66


 3324              	.LASF76:
 3325 00c8 4144435F 		.ascii	"ADC_SAR_1_GetResult16\000"
 3325      5341525F 
 3325      315F4765 
 3325      74526573 
 3325      756C7431 
 3326              	.LASF49:
 3327 00de 6D6F6465 		.ascii	"mode_1\000"
 3327      5F3100
 3328              	.LASF39:
 3329 00e5 6D6F6465 		.ascii	"mode_2\000"
 3329      5F3200
 3330              	.LASF42:
 3331 00ec 6D6F6465 		.ascii	"mode_3\000"
 3331      5F3300
 3332              	.LASF0:
 3333 00f3 666C6F61 		.ascii	"float\000"
 3333      7400
 3334              	.LASF78:
 3335 00f9 4D6F746F 		.ascii	"MotorSwitchPin_Read\000"
 3335      72537769 
 3335      74636850 
 3335      696E5F52 
 3335      65616400 
 3336              	.LASF34:
 3337 010d 656E6442 		.ascii	"endButtomChar\000"
 3337      7574746F 
 3337      6D436861 
 3337      7200
 3338              	.LASF7:
 3339 011b 6C6F6E67 		.ascii	"long int\000"
 3339      20696E74 
 3339      00
 3340              	.LASF33:
 3341 0124 62757474 		.ascii	"buttom\000"
 3341      6F6D00
 3342              	.LASF51:
 3343 012b 76616C75 		.ascii	"values\000"
 3343      657300
 3344              	.LASF56:
 3345 0132 626C6F63 		.ascii	"block\000"
 3345      6B00
 3346              	.LASF27:
 3347 0138 496E6974 		.ascii	"Init_ADC\000"
 3347      5F414443 
 3347      00
 3348              	.LASF31:
 3349 0141 77726974 		.ascii	"writeLCD\000"
 3349      654C4344 
 3349      00
 3350              	.LASF74:
 3351 014a 4C43445F 		.ascii	"LCD_PutChar\000"
 3351      50757443 
 3351      68617200 
 3352              	.LASF64:
 3353 0156 4C43445F 		.ascii	"LCD_Start\000"
 3353      53746172 
ARM GAS  C:\Users\degn\AppData\Local\Temp\ccFJuEuV.s 			page 67


 3353      7400
 3354              	.LASF22:
 3355 0160 4953525F 		.ascii	"ISR_gradient_handler\000"
 3355      67726164 
 3355      69656E74 
 3355      5F68616E 
 3355      646C6572 
 3356              	.LASF48:
 3357 0175 64656772 		.ascii	"degrees\000"
 3357      65657300 
 3358              	.LASF46:
 3359 017d 61646354 		.ascii	"adcToDegrees\000"
 3359      6F446567 
 3359      72656573 
 3359      00
 3360              	.LASF44:
 3361 018a 4953525F 		.ascii	"ISR_print_handler\000"
 3361      7072696E 
 3361      745F6861 
 3361      6E646C65 
 3361      7200
 3362              	.LASF2:
 3363 019c 756E7369 		.ascii	"unsigned char\000"
 3363      676E6564 
 3363      20636861 
 3363      7200
 3364              	.LASF75:
 3365 01aa 73707269 		.ascii	"sprintf\000"
 3365      6E746600 
 3366              	.LASF30:
 3367 01b2 496E6974 		.ascii	"Init_ISR\000"
 3367      5F495352 
 3367      00
 3368              	.LASF1:
 3369 01bb 7369676E 		.ascii	"signed char\000"
 3369      65642063 
 3369      68617200 
 3370              	.LASF28:
 3371 01c7 696E6974 		.ascii	"init_interface\000"
 3371      5F696E74 
 3371      65726661 
 3371      636500
 3372              	.LASF10:
 3373 01d6 6C6F6E67 		.ascii	"long long unsigned int\000"
 3373      206C6F6E 
 3373      6720756E 
 3373      7369676E 
 3373      65642069 
 3374              	.LASF81:
 3375 01ed 433A5C55 		.ascii	"C:\\Users\\degn\\OneDrive - Aarhus universitet\\Skr"
 3375      73657273 
 3375      5C646567 
 3375      6E5C4F6E 
 3375      65447269 
 3376 021c 69766562 		.ascii	"ivebord\\AU\\E4\\PRJ4\\Git\\E4PRJ\\PSoC\\Analogkont"
 3376      6F72645C 
 3376      41555C45 
ARM GAS  C:\Users\degn\AppData\Local\Temp\ccFJuEuV.s 			page 68


 3376      345C5052 
 3376      4A345C47 
 3377 0248 726F6C6C 		.ascii	"roller\\PRJ4.cydsn\000"
 3377      65725C50 
 3377      524A342E 
 3377      63796473 
 3377      6E00
 3378              	.LASF11:
 3379 025a 756E7369 		.ascii	"unsigned int\000"
 3379      676E6564 
 3379      20696E74 
 3379      00
 3380              	.LASF63:
 3381 0267 4C43445F 		.ascii	"LCD_PrintString\000"
 3381      5072696E 
 3381      74537472 
 3381      696E6700 
 3382              	.LASF73:
 3383 0277 6973725F 		.ascii	"isr_gradient_StartEx\000"
 3383      67726164 
 3383      69656E74 
 3383      5F537461 
 3383      72744578 
 3384              	.LASF25:
 3385 028c 4953525F 		.ascii	"ISR_motorSwitch_Off_handler\000"
 3385      6D6F746F 
 3385      72537769 
 3385      7463685F 
 3385      4F66665F 
 3386              	.LASF70:
 3387 02a8 50574D5F 		.ascii	"PWM_2_Start\000"
 3387      325F5374 
 3387      61727400 
 3388              	.LASF4:
 3389 02b4 73686F72 		.ascii	"short unsigned int\000"
 3389      7420756E 
 3389      7369676E 
 3389      65642069 
 3389      6E7400
 3390              	.LASF58:
 3391 02c7 70617373 		.ascii	"pass\000"
 3391      00
 3392              	.LASF15:
 3393 02cc 63686172 		.ascii	"char\000"
 3393      00
 3394              	.LASF66:
 3395 02d1 4144435F 		.ascii	"ADC_SAR_1_StartConvert\000"
 3395      5341525F 
 3395      315F5374 
 3395      61727443 
 3395      6F6E7665 
 3396              	.LASF13:
 3397 02e8 696E7433 		.ascii	"int32_t\000"
 3397      325F7400 
 3398              	.LASF19:
 3399 02f0 6C6F636B 		.ascii	"lock\000"
 3399      00
ARM GAS  C:\Users\degn\AppData\Local\Temp\ccFJuEuV.s 			page 69


 3400              	.LASF67:
 3401 02f5 6973725F 		.ascii	"isr_motorSwitch_On_StartEx\000"
 3401      6D6F746F 
 3401      72537769 
 3401      7463685F 
 3401      4F6E5F53 
 3402              	.LASF12:
 3403 0310 696E7431 		.ascii	"int16_t\000"
 3403      365F7400 
 3404              	.LASF60:
 3405 0318 67726164 		.ascii	"gradientCount\000"
 3405      69656E74 
 3405      436F756E 
 3405      7400
 3406              	.LASF72:
 3407 0326 6973725F 		.ascii	"isr_print_StartEx\000"
 3407      7072696E 
 3407      745F5374 
 3407      61727445 
 3407      7800
 3408              	.LASF8:
 3409 0338 6C6F6E67 		.ascii	"long unsigned int\000"
 3409      20756E73 
 3409      69676E65 
 3409      6420696E 
 3409      7400
 3410              	.LASF71:
 3411 034a 6973725F 		.ascii	"isr_toggle_StartEx\000"
 3411      746F6767 
 3411      6C655F53 
 3411      74617274 
 3411      457800
 3412              	.LASF14:
 3413 035d 646F7562 		.ascii	"double\000"
 3413      6C6500
 3414              	.LASF59:
 3415 0364 67726164 		.ascii	"gradientShift\000"
 3415      69656E74 
 3415      53686966 
 3415      7400
 3416              	.LASF52:
 3417 0372 49544D5F 		.ascii	"ITM_RxBuffer\000"
 3417      52784275 
 3417      66666572 
 3417      00
 3418              	.LASF29:
 3419 037f 496E6974 		.ascii	"Init_PWM\000"
 3419      5F50574D 
 3419      00
 3420              	.LASF68:
 3421 0388 6973725F 		.ascii	"isr_motorSwitch_Off_StartEx\000"
 3421      6D6F746F 
 3421      72537769 
 3421      7463685F 
 3421      4F66665F 
 3422              	.LASF20:
 3423 03a4 756E6465 		.ascii	"undefined\000"
ARM GAS  C:\Users\degn\AppData\Local\Temp\ccFJuEuV.s 			page 70


 3423      66696E65 
 3423      6400
 3424              	.LASF53:
 3425 03ae 636F6E76 		.ascii	"convertedResult\000"
 3425      65727465 
 3425      64526573 
 3425      756C7400 
 3426              	.LASF6:
 3427 03be 5F5F696E 		.ascii	"__int32_t\000"
 3427      7433325F 
 3427      7400
 3428              	.LASF21:
 3429 03c8 756E6C6F 		.ascii	"unlock\000"
 3429      636B00
 3430              	.LASF5:
 3431 03cf 5F5F696E 		.ascii	"__int16_t\000"
 3431      7431365F 
 3431      7400
 3432              	.LASF38:
 3433 03d9 6E65775F 		.ascii	"new_value\000"
 3433      76616C75 
 3433      6500
 3434              	.LASF80:
 3435 03e3 696E7465 		.ascii	"interface.c\000"
 3435      72666163 
 3435      652E6300 
 3436              	.LASF62:
 3437 03ef 4C43445F 		.ascii	"LCD_Position\000"
 3437      506F7369 
 3437      74696F6E 
 3437      00
 3438              	.LASF26:
 3439 03fc 496E6974 		.ascii	"Init_LCD\000"
 3439      5F4C4344 
 3439      00
 3440              	.LASF32:
 3441 0405 656E6454 		.ascii	"endTopChar\000"
 3441      6F704368 
 3441      617200
 3442              	.LASF18:
 3443 0410 64656772 		.ascii	"degree\000"
 3443      656500
 3444              	.LASF36:
 3445 0417 73657470 		.ascii	"setpoint\000"
 3445      6F696E74 
 3445      00
 3446              	.LASF82:
 3447 0420 73796D62 		.ascii	"symbol\000"
 3447      6F6C00
 3448              	.LASF79:
 3449 0427 474E5520 		.ascii	"GNU C11 5.4.1 20160609 (release) [ARM/embedded-5-br"
 3449      43313120 
 3449      352E342E 
 3449      31203230 
 3449      31363036 
 3450 045a 616E6368 		.ascii	"anch revision 237715] -mcpu=cortex-m3 -mthumb -g -O"
 3450      20726576 
ARM GAS  C:\Users\degn\AppData\Local\Temp\ccFJuEuV.s 			page 71


 3450      6973696F 
 3450      6E203233 
 3450      37373135 
 3451 048d 67202D66 		.ascii	"g -ffunction-sections -ffat-lto-objects\000"
 3451      66756E63 
 3451      74696F6E 
 3451      2D736563 
 3451      74696F6E 
 3452              	.LASF54:
 3453 04b5 746F6767 		.ascii	"toggle\000"
 3453      6C6500
 3454              	.LASF35:
 3455 04bc 77726974 		.ascii	"writeLCD2\000"
 3455      654C4344 
 3455      3200
 3456              	.LASF23:
 3457 04c6 4953525F 		.ascii	"ISR_toggle_handler\000"
 3457      746F6767 
 3457      6C655F68 
 3457      616E646C 
 3457      657200
 3458              	.LASF77:
 3459 04d9 50574D5F 		.ascii	"PWM_2_WritePeriod\000"
 3459      325F5772 
 3459      69746550 
 3459      6572696F 
 3459      6400
 3460              		.ident	"GCC: (GNU Tools for ARM Embedded Processors) 5.4.1 20160609 (release) [ARM/embedded-5-bran
